# SymbolsHelper-Confirmed: 4:4.4.0 amd64
libakonadi-contact.so.4 libakonadi-contact4 #MINVER#
 _ZN7Akonadi13ContactEditor11loadContactERKNS_4ItemE@Base 4:4.4.0
 _ZN7Akonadi13ContactEditor11qt_metacallEN11QMetaObject4CallEiPPv@Base 4:4.4.0
 _ZN7Akonadi13ContactEditor11qt_metacastEPKc@Base 4:4.4.0
 _ZN7Akonadi13ContactEditor11saveContactEv@Base 4:4.4.0
 _ZN7Akonadi13ContactEditor13contactStoredERKNS_4ItemE@Base 4:4.4.0
 _ZN7Akonadi13ContactEditor16staticMetaObjectE@Base 4:4.4.0
 _ZN7Akonadi13ContactEditor18setContactTemplateERKN4KABC9AddresseeE@Base 4:4.4.0
 _ZN7Akonadi13ContactEditor21setDefaultAddressBookERKNS_10CollectionE@Base 4:4.4.0
 _ZN7Akonadi13ContactEditor5errorERK7QString@Base 4:4.4.0
 _ZN7Akonadi13ContactEditor7Private11itemChangedERKNS_4ItemERK4QSetI10QByteArrayE@Base 4:4.4.0
 _ZN7Akonadi13ContactEditor7Private11loadContactERKN4KABC9AddresseeERKNS_15ContactMetaDataE@Base 4:4.4.0
 _ZN7Akonadi13ContactEditor7Private12setupMonitorEv@Base 4:4.4.0
 _ZN7Akonadi13ContactEditor7Private12storeContactERN4KABC9AddresseeERNS_15ContactMetaDataE@Base 4:4.4.0
 _ZN7Akonadi13ContactEditor7Private13itemFetchDoneEP4KJob@Base 4:4.4.0
 _ZN7Akonadi13ContactEditor7Private25parentCollectionFetchDoneEP4KJob@Base 4:4.4.0
 _ZN7Akonadi13ContactEditor7Private9storeDoneEP4KJob@Base 4:4.4.0
 _ZN7Akonadi13ContactEditorC1ENS0_4ModeEP7QWidget@Base 4:4.4.0
 _ZN7Akonadi13ContactEditorC1ENS0_4ModeEPNS_27AbstractContactEditorWidgetEP7QWidget@Base 4:4.4.0
 _ZN7Akonadi13ContactEditorC2ENS0_4ModeEP7QWidget@Base 4:4.4.0
 _ZN7Akonadi13ContactEditorC2ENS0_4ModeEPNS_27AbstractContactEditorWidgetEP7QWidget@Base 4:4.4.0
 _ZN7Akonadi13ContactEditorD0Ev@Base 4:4.4.0
 _ZN7Akonadi13ContactEditorD1Ev@Base 4:4.4.0
 _ZN7Akonadi13ContactEditorD2Ev@Base 4:4.4.0
 _ZN7Akonadi13ContactViewer10setContactERKNS_4ItemE@Base 4:4.4.0
 _ZN7Akonadi13ContactViewer10urlClickedERK4KUrl@Base 4:4.4.0
 _ZN7Akonadi13ContactViewer11itemChangedERKNS_4ItemE@Base 4:4.4.0
 _ZN7Akonadi13ContactViewer11itemRemovedEv@Base 4:4.4.0
 _ZN7Akonadi13ContactViewer11qt_metacallEN11QMetaObject4CallEiPPv@Base 4:4.4.0
 _ZN7Akonadi13ContactViewer11qt_metacastEPKc@Base 4:4.4.0
 _ZN7Akonadi13ContactViewer12emailClickedERK7QStringS3_@Base 4:4.4.0
 _ZN7Akonadi13ContactViewer14addressClickedERKN4KABC7AddressE@Base 4:4.4.0
 _ZN7Akonadi13ContactViewer16staticMetaObjectE@Base 4:4.4.0
 _ZN7Akonadi13ContactViewer18phoneNumberClickedERKN4KABC11PhoneNumberE@Base 4:4.4.0
 _ZN7Akonadi13ContactViewerC1EP7QWidget@Base 4:4.4.0
 _ZN7Akonadi13ContactViewerC2EP7QWidget@Base 4:4.4.0
 _ZN7Akonadi13ContactViewerD0Ev@Base 4:4.4.0
 _ZN7Akonadi13ContactViewerD1Ev@Base 4:4.4.0
 _ZN7Akonadi13ContactViewerD2Ev@Base 4:4.4.0
 _ZN7Akonadi16ContactSearchJob11qt_metacallEN11QMetaObject4CallEiPPv@Base 4:4.4.0
 _ZN7Akonadi16ContactSearchJob11qt_metacastEPKc@Base 4:4.4.0
 _ZN7Akonadi16ContactSearchJob16staticMetaObjectE@Base 4:4.4.0
 _ZN7Akonadi16ContactSearchJob8setLimitEi@Base 4:4.4.0
 _ZN7Akonadi16ContactSearchJob8setQueryENS0_9CriterionERK7QString@Base 4:4.4.0
 _ZN7Akonadi16ContactSearchJobC1EP7QObject@Base 4:4.4.0
 _ZN7Akonadi16ContactSearchJobC2EP7QObject@Base 4:4.4.0
 _ZN7Akonadi16ContactSearchJobD0Ev@Base 4:4.4.0
 _ZN7Akonadi16ContactSearchJobD1Ev@Base 4:4.4.0
 _ZN7Akonadi16ContactSearchJobD2Ev@Base 4:4.4.0
 _ZN7Akonadi18ContactGroupEditor11qt_metacallEN11QMetaObject4CallEiPPv@Base 4:4.4.0
 _ZN7Akonadi18ContactGroupEditor11qt_metacastEPKc@Base 4:4.4.0
 _ZN7Akonadi18ContactGroupEditor16loadContactGroupERKNS_4ItemE@Base 4:4.4.0
 _ZN7Akonadi18ContactGroupEditor16saveContactGroupEv@Base 4:4.4.0
 _ZN7Akonadi18ContactGroupEditor16staticMetaObjectE@Base 4:4.4.0
 _ZN7Akonadi18ContactGroupEditor18contactGroupStoredERKNS_4ItemE@Base 4:4.4.0
 _ZN7Akonadi18ContactGroupEditor21setDefaultAddressBookERKNS_10CollectionE@Base 4:4.4.0
 _ZN7Akonadi18ContactGroupEditor23setContactGroupTemplateERKN4KABC12ContactGroupE@Base 4:4.4.0
 _ZN7Akonadi18ContactGroupEditor5errorERK7QString@Base 4:4.4.0
 _ZN7Akonadi18ContactGroupEditor7Private11itemChangedERKNS_4ItemERK4QSetI10QByteArrayE@Base 4:4.4.0
 _ZN7Akonadi18ContactGroupEditor7Private11setReadOnlyEb@Base 4:4.4.0
 _ZN7Akonadi18ContactGroupEditor7Private12setupMonitorEv@Base 4:4.4.0
 _ZN7Akonadi18ContactGroupEditor7Private13itemFetchDoneEP4KJob@Base 4:4.4.0
 _ZN7Akonadi18ContactGroupEditor7Private16loadContactGroupERKN4KABC12ContactGroupE@Base 4:4.4.0
 _ZN7Akonadi18ContactGroupEditor7Private17storeContactGroupERN4KABC12ContactGroupE@Base 4:4.4.0
 _ZN7Akonadi18ContactGroupEditor7Private25parentCollectionFetchDoneEP4KJob@Base 4:4.4.0
 _ZN7Akonadi18ContactGroupEditor7Private9storeDoneEP4KJob@Base 4:4.4.0
 _ZN7Akonadi18ContactGroupEditorC1ENS0_4ModeEP7QWidget@Base 4:4.4.0
 _ZN7Akonadi18ContactGroupEditorC2ENS0_4ModeEP7QWidget@Base 4:4.4.0
 _ZN7Akonadi18ContactGroupEditorD0Ev@Base 4:4.4.0
 _ZN7Akonadi18ContactGroupEditorD1Ev@Base 4:4.4.0
 _ZN7Akonadi18ContactGroupEditorD2Ev@Base 4:4.4.0
 _ZN7Akonadi18ContactGroupViewer11itemChangedERKNS_4ItemE@Base 4:4.4.0
 _ZN7Akonadi18ContactGroupViewer11itemRemovedEv@Base 4:4.4.0
 _ZN7Akonadi18ContactGroupViewer11qt_metacallEN11QMetaObject4CallEiPPv@Base 4:4.4.0
 _ZN7Akonadi18ContactGroupViewer11qt_metacastEPKc@Base 4:4.4.0
 _ZN7Akonadi18ContactGroupViewer12emailClickedERK7QStringS3_@Base 4:4.4.0
 _ZN7Akonadi18ContactGroupViewer15setContactGroupERKNS_4ItemE@Base 4:4.4.0
 _ZN7Akonadi18ContactGroupViewer16staticMetaObjectE@Base 4:4.4.0
 _ZN7Akonadi18ContactGroupViewerC1EP7QWidget@Base 4:4.4.0
 _ZN7Akonadi18ContactGroupViewerC2EP7QWidget@Base 4:4.4.0
 _ZN7Akonadi18ContactGroupViewerD0Ev@Base 4:4.4.0
 _ZN7Akonadi18ContactGroupViewerD1Ev@Base 4:4.4.0
 _ZN7Akonadi18ContactGroupViewerD2Ev@Base 4:4.4.0
 _ZN7Akonadi19ContactEditorDialog10setContactERKNS_4ItemE@Base 4:4.4.0
 _ZN7Akonadi19ContactEditorDialog11qt_metacallEN11QMetaObject4CallEiPPv@Base 4:4.4.0
 _ZN7Akonadi19ContactEditorDialog11qt_metacastEPKc@Base 4:4.4.0
 _ZN7Akonadi19ContactEditorDialog13contactStoredERKNS_4ItemE@Base 4:4.4.0
 _ZN7Akonadi19ContactEditorDialog16staticMetaObjectE@Base 4:4.4.0
 _ZN7Akonadi19ContactEditorDialog21setDefaultAddressBookERKNS_10CollectionE@Base 4:4.4.0
 _ZN7Akonadi19ContactEditorDialogC1ENS0_4ModeEP7QWidget@Base 4:4.4.0
 _ZN7Akonadi19ContactEditorDialogC1ENS0_4ModeEPNS_27AbstractContactEditorWidgetEP7QWidget@Base 4:4.4.0
 _ZN7Akonadi19ContactEditorDialogC2ENS0_4ModeEP7QWidget@Base 4:4.4.0
 _ZN7Akonadi19ContactEditorDialogC2ENS0_4ModeEPNS_27AbstractContactEditorWidgetEP7QWidget@Base 4:4.4.0
 _ZN7Akonadi19ContactEditorDialogD0Ev@Base 4:4.4.0
 _ZN7Akonadi19ContactEditorDialogD1Ev@Base 4:4.4.0
 _ZN7Akonadi19ContactEditorDialogD2Ev@Base 4:4.4.0
 _ZN7Akonadi19ContactViewerDialog10setContactERKNS_4ItemE@Base 4:4.4.0
 _ZN7Akonadi19ContactViewerDialog11qt_metacallEN11QMetaObject4CallEiPPv@Base 4:4.4.0
 _ZN7Akonadi19ContactViewerDialog11qt_metacastEPKc@Base 4:4.4.0
 _ZN7Akonadi19ContactViewerDialog16staticMetaObjectE@Base 4:4.4.0
 _ZN7Akonadi19ContactViewerDialogC1EP7QWidget@Base 4:4.4.0
 _ZN7Akonadi19ContactViewerDialogC2EP7QWidget@Base 4:4.4.0
 _ZN7Akonadi19ContactViewerDialogD0Ev@Base 4:4.4.0
 _ZN7Akonadi19ContactViewerDialogD1Ev@Base 4:4.4.0
 _ZN7Akonadi19ContactViewerDialogD2Ev@Base 4:4.4.0
 _ZN7Akonadi21ContactDefaultActions11qt_metacallEN11QMetaObject4CallEiPPv@Base 4:4.4.0
 _ZN7Akonadi21ContactDefaultActions11qt_metacastEPKc@Base 4:4.4.0
 _ZN7Akonadi21ContactDefaultActions11showAddressERKN4KABC7AddressE@Base 4:4.4.0
 _ZN7Akonadi21ContactDefaultActions13connectToViewEP7QObject@Base 4:4.4.0
 _ZN7Akonadi21ContactDefaultActions15dialPhoneNumberERKN4KABC11PhoneNumberE@Base 4:4.4.0
 _ZN7Akonadi21ContactDefaultActions16staticMetaObjectE@Base 4:4.4.0
 _ZN7Akonadi21ContactDefaultActions7showUrlERK4KUrl@Base 4:4.4.0
 _ZN7Akonadi21ContactDefaultActions9sendEmailERK7QStringS3_@Base 4:4.4.0
 _ZN7Akonadi21ContactDefaultActionsC1EP7QObject@Base 4:4.4.0
 _ZN7Akonadi21ContactDefaultActionsC2EP7QObject@Base 4:4.4.0
 _ZN7Akonadi21ContactDefaultActionsD0Ev@Base 4:4.4.0
 _ZN7Akonadi21ContactDefaultActionsD1Ev@Base 4:4.4.0
 _ZN7Akonadi21ContactDefaultActionsD2Ev@Base 4:4.4.0
 _ZN7Akonadi21ContactGroupExpandJob11qt_metacallEN11QMetaObject4CallEiPPv@Base 4:4.4.0
 _ZN7Akonadi21ContactGroupExpandJob11qt_metacastEPKc@Base 4:4.4.0
 _ZN7Akonadi21ContactGroupExpandJob16staticMetaObjectE@Base 4:4.4.0
 _ZN7Akonadi21ContactGroupExpandJob5startEv@Base 4:4.4.0
 _ZN7Akonadi21ContactGroupExpandJobC1ERKN4KABC12ContactGroupEP7QObject@Base 4:4.4.0
 _ZN7Akonadi21ContactGroupExpandJobC2ERKN4KABC12ContactGroupEP7QObject@Base 4:4.4.0
 _ZN7Akonadi21ContactGroupExpandJobD0Ev@Base 4:4.4.0
 _ZN7Akonadi21ContactGroupExpandJobD1Ev@Base 4:4.4.0
 _ZN7Akonadi21ContactGroupExpandJobD2Ev@Base 4:4.4.0
 _ZN7Akonadi21ContactGroupSearchJob11qt_metacallEN11QMetaObject4CallEiPPv@Base 4:4.4.0
 _ZN7Akonadi21ContactGroupSearchJob11qt_metacastEPKc@Base 4:4.4.0
 _ZN7Akonadi21ContactGroupSearchJob16staticMetaObjectE@Base 4:4.4.0
 _ZN7Akonadi21ContactGroupSearchJob8setQueryENS0_9CriterionERK7QString@Base 4:4.4.0
 _ZN7Akonadi21ContactGroupSearchJobC1EP7QObject@Base 4:4.4.0
 _ZN7Akonadi21ContactGroupSearchJobC2EP7QObject@Base 4:4.4.0
 _ZN7Akonadi21ContactGroupSearchJobD0Ev@Base 4:4.4.0
 _ZN7Akonadi21ContactGroupSearchJobD1Ev@Base 4:4.4.0
 _ZN7Akonadi21ContactGroupSearchJobD2Ev@Base 4:4.4.0
 _ZN7Akonadi24ContactGroupEditorDialog11qt_metacallEN11QMetaObject4CallEiPPv@Base 4:4.4.0
 _ZN7Akonadi24ContactGroupEditorDialog11qt_metacastEPKc@Base 4:4.4.0
 _ZN7Akonadi24ContactGroupEditorDialog15setContactGroupERKNS_4ItemE@Base 4:4.4.0
 _ZN7Akonadi24ContactGroupEditorDialog16staticMetaObjectE@Base 4:4.4.0
 _ZN7Akonadi24ContactGroupEditorDialog17slotButtonClickedEi@Base 4:4.4.0
 _ZN7Akonadi24ContactGroupEditorDialog18contactGroupStoredERKNS_4ItemE@Base 4:4.4.0
 _ZN7Akonadi24ContactGroupEditorDialog21setDefaultAddressBookERKNS_10CollectionE@Base 4:4.4.0
 _ZN7Akonadi24ContactGroupEditorDialogC1ENS0_4ModeEP7QWidget@Base 4:4.4.0
 _ZN7Akonadi24ContactGroupEditorDialogC2ENS0_4ModeEP7QWidget@Base 4:4.4.0
 _ZN7Akonadi24ContactGroupEditorDialogD0Ev@Base 4:4.4.0
 _ZN7Akonadi24ContactGroupEditorDialogD1Ev@Base 4:4.4.0
 _ZN7Akonadi24ContactGroupEditorDialogD2Ev@Base 4:4.4.0
 _ZN7Akonadi24ContactGroupViewerDialog11qt_metacallEN11QMetaObject4CallEiPPv@Base 4:4.4.0
 _ZN7Akonadi24ContactGroupViewerDialog11qt_metacastEPKc@Base 4:4.4.0
 _ZN7Akonadi24ContactGroupViewerDialog15setContactGroupERKNS_4ItemE@Base 4:4.4.0
 _ZN7Akonadi24ContactGroupViewerDialog16staticMetaObjectE@Base 4:4.4.0
 _ZN7Akonadi24ContactGroupViewerDialogC1EP7QWidget@Base 4:4.4.0
 _ZN7Akonadi24ContactGroupViewerDialogC2EP7QWidget@Base 4:4.4.0
 _ZN7Akonadi24ContactGroupViewerDialogD0Ev@Base 4:4.4.0
 _ZN7Akonadi24ContactGroupViewerDialogD1Ev@Base 4:4.4.0
 _ZN7Akonadi24ContactGroupViewerDialogD2Ev@Base 4:4.4.0
 _ZN7Akonadi24ContactMetaDataAttribute11deserializeERK10QByteArray@Base 4:4.4.0
 _ZN7Akonadi24ContactMetaDataAttribute11setMetaDataERK4QMapI7QString8QVariantE@Base 4:4.4.0
 _ZN7Akonadi24ContactMetaDataAttributeC1Ev@Base 4:4.4.0
 _ZN7Akonadi24ContactMetaDataAttributeC2Ev@Base 4:4.4.0
 _ZN7Akonadi24ContactMetaDataAttributeD0Ev@Base 4:4.4.0
 _ZN7Akonadi24ContactMetaDataAttributeD1Ev@Base 4:4.4.0
 _ZN7Akonadi24ContactMetaDataAttributeD2Ev@Base 4:4.4.0
 _ZN7Akonadi25RecentContactsCollections11qt_metacallEN11QMetaObject4CallEiPPv@Base 4:4.4.0
 _ZN7Akonadi25RecentContactsCollections11qt_metacastEPKc@Base 4:4.4.0
 _ZN7Akonadi25RecentContactsCollections16staticMetaObjectE@Base 4:4.4.0
 _ZN7Akonadi25RecentContactsCollections18registerCollectionERKNS_10CollectionE@Base 4:4.4.0
 _ZN7Akonadi25RecentContactsCollections4selfEv@Base 4:4.4.0
 _ZN7Akonadi25RecentContactsCollectionsC1EPNS_32RecentContactsCollectionsPrivateE@Base 4:4.4.0
 _ZN7Akonadi25RecentContactsCollectionsC2EPNS_32RecentContactsCollectionsPrivateE@Base 4:4.4.0
 _ZN7Akonadi34RecentContactsCollectionRequestJob11qt_metacallEN11QMetaObject4CallEiPPv@Base 4:4.4.0
 _ZN7Akonadi34RecentContactsCollectionRequestJob11qt_metacastEPKc@Base 4:4.4.0
 _ZN7Akonadi34RecentContactsCollectionRequestJob16staticMetaObjectE@Base 4:4.4.0
 _ZN7Akonadi34RecentContactsCollectionRequestJob17requestCollectionERKNS_13AgentInstanceE@Base 4:4.4.0
 _ZN7Akonadi34RecentContactsCollectionRequestJob24requestDefaultCollectionEv@Base 4:4.4.0
 _ZN7Akonadi34RecentContactsCollectionRequestJobC1EP7QObject@Base 4:4.4.0
 _ZN7Akonadi34RecentContactsCollectionRequestJobC2EP7QObject@Base 4:4.4.0
 _ZN7Akonadi34RecentContactsCollectionRequestJobD0Ev@Base 4:4.4.0
 _ZN7Akonadi34RecentContactsCollectionRequestJobD1Ev@Base 4:4.4.0
 _ZN7Akonadi34RecentContactsCollectionRequestJobD2Ev@Base 4:4.4.0
 (optional=templinst)_ZN7Akonadi4Item10setPayloadIN4KABC12ContactGroupEEEvRKT_@Base 4:4.4.0
 (optional=templinst)_ZN7Akonadi4Item10setPayloadIN4KABC9AddresseeEEEvRKT_@Base 4:4.4.0
 _ZNK7Akonadi13ContactEditor10metaObjectEv@Base 4:4.4.0
 _ZNK7Akonadi13ContactViewer10metaObjectEv@Base 4:4.4.0
 _ZNK7Akonadi13ContactViewer7contactEv@Base 4:4.4.0
 _ZNK7Akonadi16ContactSearchJob10metaObjectEv@Base 4:4.4.0
 _ZNK7Akonadi16ContactSearchJob8contactsEv@Base 4:4.4.0
 _ZNK7Akonadi18ContactGroupEditor10metaObjectEv@Base 4:4.4.0
 _ZNK7Akonadi18ContactGroupViewer10metaObjectEv@Base 4:4.4.0
 _ZNK7Akonadi18ContactGroupViewer12contactGroupEv@Base 4:4.4.0
 _ZNK7Akonadi19ContactEditorDialog10metaObjectEv@Base 4:4.4.0
 _ZNK7Akonadi19ContactEditorDialog6editorEv@Base 4:4.4.0
 _ZNK7Akonadi19ContactViewerDialog10metaObjectEv@Base 4:4.4.0
 _ZNK7Akonadi19ContactViewerDialog6viewerEv@Base 4:4.4.0
 _ZNK7Akonadi19ContactViewerDialog7contactEv@Base 4:4.4.0
 _ZNK7Akonadi21ContactDefaultActions10metaObjectEv@Base 4:4.4.0
 _ZNK7Akonadi21ContactGroupExpandJob10metaObjectEv@Base 4:4.4.0
 _ZNK7Akonadi21ContactGroupExpandJob8contactsEv@Base 4:4.4.0
 _ZNK7Akonadi21ContactGroupSearchJob10metaObjectEv@Base 4:4.4.0
 _ZNK7Akonadi21ContactGroupSearchJob13contactGroupsEv@Base 4:4.4.0
 _ZNK7Akonadi24ContactGroupEditorDialog10metaObjectEv@Base 4:4.4.0
 _ZNK7Akonadi24ContactGroupEditorDialog6editorEv@Base 4:4.4.0
 _ZNK7Akonadi24ContactGroupViewerDialog10metaObjectEv@Base 4:4.4.0
 _ZNK7Akonadi24ContactGroupViewerDialog12contactGroupEv@Base 4:4.4.0
 _ZNK7Akonadi24ContactGroupViewerDialog6viewerEv@Base 4:4.4.0
 _ZNK7Akonadi24ContactMetaDataAttribute10serializedEv@Base 4:4.4.0
 _ZNK7Akonadi24ContactMetaDataAttribute4typeEv@Base 4:4.4.0
 _ZNK7Akonadi24ContactMetaDataAttribute5cloneEv@Base 4:4.4.0
 _ZNK7Akonadi24ContactMetaDataAttribute8metaDataEv@Base 4:4.4.0
 _ZNK7Akonadi25RecentContactsCollections10collectionERKNS_13AgentInstanceE@Base 4:4.4.0
 _ZNK7Akonadi25RecentContactsCollections10metaObjectEv@Base 4:4.4.0
 _ZNK7Akonadi25RecentContactsCollections13hasCollectionERKNS_13AgentInstanceE@Base 4:4.4.0
 _ZNK7Akonadi25RecentContactsCollections17defaultCollectionEv@Base 4:4.4.0
 _ZNK7Akonadi25RecentContactsCollections20hasDefaultCollectionEv@Base 4:4.4.0
 _ZNK7Akonadi34RecentContactsCollectionRequestJob10metaObjectEv@Base 4:4.4.0
 (optional=templinst)_ZNK7Akonadi4Item7payloadIN4KABC12ContactGroupEEET_v@Base 4:4.4.0
 (optional=templinst)_ZNK7Akonadi4Item7payloadIN4KABC9AddresseeEEET_v@Base 4:4.4.0
 _ZTIN7Akonadi13ContactEditorE@Base 4:4.4.0
 _ZTIN7Akonadi13ContactViewerE@Base 4:4.4.0
 _ZTIN7Akonadi16ContactSearchJobE@Base 4:4.4.0
 _ZTIN7Akonadi18ContactGroupEditorE@Base 4:4.4.0
 _ZTIN7Akonadi18ContactGroupViewerE@Base 4:4.4.0
 _ZTIN7Akonadi19ContactEditorDialogE@Base 4:4.4.0
 _ZTIN7Akonadi19ContactViewerDialogE@Base 4:4.4.0
 _ZTIN7Akonadi21ContactDefaultActionsE@Base 4:4.4.0
 _ZTIN7Akonadi21ContactGroupExpandJobE@Base 4:4.4.0
 _ZTIN7Akonadi21ContactGroupSearchJobE@Base 4:4.4.0
 _ZTIN7Akonadi24ContactGroupEditorDialogE@Base 4:4.4.0
 _ZTIN7Akonadi24ContactGroupViewerDialogE@Base 4:4.4.0
 _ZTIN7Akonadi24ContactMetaDataAttributeE@Base 4:4.4.0
 _ZTIN7Akonadi25RecentContactsCollectionsE@Base 4:4.4.0
 _ZTIN7Akonadi34RecentContactsCollectionRequestJobE@Base 4:4.4.0
 _ZTSN7Akonadi13ContactEditorE@Base 4:4.4.0
 _ZTSN7Akonadi13ContactViewerE@Base 4:4.4.0
 _ZTSN7Akonadi16ContactSearchJobE@Base 4:4.4.0
 _ZTSN7Akonadi18ContactGroupEditorE@Base 4:4.4.0
 _ZTSN7Akonadi18ContactGroupViewerE@Base 4:4.4.0
 _ZTSN7Akonadi19ContactEditorDialogE@Base 4:4.4.0
 _ZTSN7Akonadi19ContactViewerDialogE@Base 4:4.4.0
 _ZTSN7Akonadi21ContactDefaultActionsE@Base 4:4.4.0
 _ZTSN7Akonadi21ContactGroupExpandJobE@Base 4:4.4.0
 _ZTSN7Akonadi21ContactGroupSearchJobE@Base 4:4.4.0
 _ZTSN7Akonadi24ContactGroupEditorDialogE@Base 4:4.4.0
 _ZTSN7Akonadi24ContactGroupViewerDialogE@Base 4:4.4.0
 _ZTSN7Akonadi24ContactMetaDataAttributeE@Base 4:4.4.0
 _ZTSN7Akonadi25RecentContactsCollectionsE@Base 4:4.4.0
 _ZTSN7Akonadi34RecentContactsCollectionRequestJobE@Base 4:4.4.0
 _ZTVN7Akonadi13ContactEditorE@Base 4:4.4.0
 _ZTVN7Akonadi13ContactViewerE@Base 4:4.4.0
 _ZTVN7Akonadi16ContactSearchJobE@Base 4:4.4.0
 _ZTVN7Akonadi18ContactGroupEditorE@Base 4:4.4.0
 _ZTVN7Akonadi18ContactGroupViewerE@Base 4:4.4.0
 _ZTVN7Akonadi19ContactEditorDialogE@Base 4:4.4.0
 _ZTVN7Akonadi19ContactViewerDialogE@Base 4:4.4.0
 _ZTVN7Akonadi21ContactDefaultActionsE@Base 4:4.4.0
 _ZTVN7Akonadi21ContactGroupExpandJobE@Base 4:4.4.0
 _ZTVN7Akonadi21ContactGroupSearchJobE@Base 4:4.4.0
 _ZTVN7Akonadi24ContactGroupEditorDialogE@Base 4:4.4.0
 _ZTVN7Akonadi24ContactGroupViewerDialogE@Base 4:4.4.0
 _ZTVN7Akonadi24ContactMetaDataAttributeE@Base 4:4.4.0
 _ZTVN7Akonadi25RecentContactsCollectionsE@Base 4:4.4.0
 _ZTVN7Akonadi34RecentContactsCollectionRequestJobE@Base 4:4.4.0
 (c++)"non-virtual thunk to Akonadi::ContactEditor::~ContactEditor()@Base" 4:4.4.0
 (c++)"non-virtual thunk to Akonadi::ContactEditorDialog::~ContactEditorDialog()@Base" 4:4.4.0
 (c++)"non-virtual thunk to Akonadi::ContactGroupEditor::~ContactGroupEditor()@Base" 4:4.4.0
 (c++)"non-virtual thunk to Akonadi::ContactGroupEditorDialog::~ContactGroupEditorDialog()@Base" 4:4.4.0
 (c++)"non-virtual thunk to Akonadi::ContactGroupViewer::itemChanged(Akonadi::Item const&)@Base" 4:4.4.0
 (c++)"non-virtual thunk to Akonadi::ContactGroupViewer::itemRemoved()@Base" 4:4.4.0
 (c++)"non-virtual thunk to Akonadi::ContactGroupViewer::~ContactGroupViewer()@Base" 4:4.4.0
 (c++)"non-virtual thunk to Akonadi::ContactGroupViewerDialog::~ContactGroupViewerDialog()@Base" 4:4.4.0
 (c++)"non-virtual thunk to Akonadi::ContactViewer::itemChanged(Akonadi::Item const&)@Base" 4:4.4.0
 (c++)"non-virtual thunk to Akonadi::ContactViewer::itemRemoved()@Base" 4:4.4.0
 (c++)"non-virtual thunk to Akonadi::ContactViewer::~ContactViewer()@Base" 4:4.4.0
 (c++)"non-virtual thunk to Akonadi::ContactViewerDialog::~ContactViewerDialog()@Base" 4:4.4.0
