# SymbolsHelper-Confirmed: 4:4.14.6 alpha armel armhf mips mipsel s390x sparc
libakonadi-calendar.so.4 libakonadi-calendar4 #MINVER#, kdepim-runtime (>> 4:4.10)
 _ZN5KMime5Types7MailboxD1Ev@Base 4:4.10.80
 _ZN5KMime5Types7MailboxD2Ev@Base 4:4.10.80
 _ZN5KMime5Types8AddrSpecD1Ev@Base 4:4.14.6
 _ZN5KMime5Types8AddrSpecD2Ev@Base 4:4.14.6
 _ZN7Akonadi10TodoPurger11qt_metacallEN11QMetaObject4CallEiPPv@Base 4:4.11.80
 _ZN7Akonadi10TodoPurger11qt_metacastEPKc@Base 4:4.11.80
 _ZN7Akonadi10TodoPurger11setCalendarERK14QSharedPointerINS_12CalendarBaseEE@Base 4:4.11.80
 _ZN7Akonadi10TodoPurger11todosPurgedEbii@Base 4:4.11.80
 _ZN7Akonadi10TodoPurger16staticMetaObjectE@Base 4:4.11.80
 _ZN7Akonadi10TodoPurger18setIncidenceChagerEPNS_16IncidenceChangerE@Base 4:4.11.80
 _ZN7Akonadi10TodoPurger19purgeCompletedTodosEv@Base 4:4.11.80
 _ZN7Akonadi10TodoPurger7Private11deleteTodosEv@Base 4:4.11.80
 _ZN7Akonadi10TodoPurger7Private11qt_metacallEN11QMetaObject4CallEiPPv@Base 4:4.11.80
 _ZN7Akonadi10TodoPurger7Private11qt_metacastEPKc@Base 4:4.11.80
 _ZN7Akonadi10TodoPurger7Private14onItemsDeletedEiRK7QVectorIxENS_16IncidenceChanger10ResultCodeERK7QString@Base 4:4.11.80
 _ZN7Akonadi10TodoPurger7Private15treeIsDeletableERK14QSharedPointerIN8KCalCore4TodoEE@Base 4:4.11.80
 _ZN7Akonadi10TodoPurger7Private16onCalendarLoadedEbRK7QString@Base 4:4.11.80
 _ZN7Akonadi10TodoPurger7Private16staticMetaObjectE@Base 4:4.11.80
 _ZN7Akonadi10TodoPurger7PrivateC1EPS0_@Base 4:4.11.80
 _ZN7Akonadi10TodoPurger7PrivateC2EPS0_@Base 4:4.11.80
 _ZN7Akonadi10TodoPurger7PrivateD0Ev@Base 4:4.11.80
 _ZN7Akonadi10TodoPurger7PrivateD1Ev@Base 4:4.11.80
 _ZN7Akonadi10TodoPurger7PrivateD2Ev@Base 4:4.11.80
 _ZN7Akonadi10TodoPurgerC1EP7QObject@Base 4:4.11.80
 _ZN7Akonadi10TodoPurgerC2EP7QObject@Base 4:4.11.80
 _ZN7Akonadi10TodoPurgerD0Ev@Base 4:4.11.80
 _ZN7Akonadi10TodoPurgerD1Ev@Base 4:4.11.80
 _ZN7Akonadi10TodoPurgerD2Ev@Base 4:4.11.80
 _ZN7Akonadi11ETMCalendar11qt_metacallEN11QMetaObject4CallEiPPv@Base 4:4.10.80
 _ZN7Akonadi11ETMCalendar11qt_metacastEPKc@Base 4:4.10.80
 _ZN7Akonadi11ETMCalendar15calendarChangedEv@Base 4:4.10.80
 _ZN7Akonadi11ETMCalendar16collectionsAddedERK5QListINS_10CollectionEE@Base 4:4.10.80
 _ZN7Akonadi11ETMCalendar16staticMetaObjectE@Base 4:4.10.80
 _ZN7Akonadi11ETMCalendar17collectionChangedERKNS_10CollectionERK4QSetI10QByteArrayE@Base 4:4.10.80
 _ZN7Akonadi11ETMCalendar18collectionsRemovedERK5QListINS_10CollectionEE@Base 4:4.10.80
 _ZN7Akonadi11ETMCalendar29setCollectionFilteringEnabledEb@Base 4:4.10.80
 _ZN7Akonadi11ETMCalendarC1EP7QObject@Base 4:4.10.80
 _ZN7Akonadi11ETMCalendarC1EPS0_P7QObject@Base 4:4.12.80
 _ZN7Akonadi11ETMCalendarC1ERK11QStringListP7QObject@Base 4:4.10.90
 _ZN7Akonadi11ETMCalendarC2EP7QObject@Base 4:4.10.80
 _ZN7Akonadi11ETMCalendarC2EPS0_P7QObject@Base 4:4.12.80
 _ZN7Akonadi11ETMCalendarC2ERK11QStringListP7QObject@Base 4:4.10.90
 _ZN7Akonadi11ETMCalendarD0Ev@Base 4:4.10.80
 _ZN7Akonadi11ETMCalendarD1Ev@Base 4:4.10.80
 _ZN7Akonadi11ETMCalendarD2Ev@Base 4:4.10.80
 _ZN7Akonadi11ITIPHandler11qt_metacallEN11QMetaObject4CallEiPPv@Base 4:4.10.80
 _ZN7Akonadi11ITIPHandler11qt_metacastEPKc@Base 4:4.10.80
 _ZN7Akonadi11ITIPHandler11setCalendarERK14QSharedPointerINS_12CalendarBaseEE@Base 4:4.10.95
 _ZN7Akonadi11ITIPHandler15iTipMessageSentENS0_6ResultERK7QString@Base 4:4.10.80
 _ZN7Akonadi11ITIPHandler15sendAsICalendarERK14QSharedPointerIN8KCalCore9IncidenceEEP7QWidget@Base 4:4.10.80
 _ZN7Akonadi11ITIPHandler15sendiTIPMessageEN8KCalCore10iTIPMethodERK14QSharedPointerINS1_9IncidenceEEP7QWidget@Base 4:4.10.80
 _ZN7Akonadi11ITIPHandler15sentAsICalendarENS0_6ResultERK7QString@Base 4:4.10.80
 _ZN7Akonadi11ITIPHandler16staticMetaObjectE@Base 4:4.10.80
 _ZN7Akonadi11ITIPHandler18processiTIPMessageERK7QStringS3_S3_@Base 4:4.10.80
 _ZN7Akonadi11ITIPHandler18publishInformationERK14QSharedPointerIN8KCalCore9IncidenceEEP7QWidget@Base 4:4.10.80
 _ZN7Akonadi11ITIPHandler20iTipMessageProcessedENS0_6ResultERK7QString@Base 4:4.10.80
 _ZN7Akonadi11ITIPHandler20informationPublishedENS0_6ResultERK7QString@Base 4:4.10.80
 _ZN7Akonadi11ITIPHandler21setShowDialogsOnErrorEb@Base 4:4.11.80
 _ZN7Akonadi11ITIPHandler22setGroupwareUiDelegateEPNS_19GroupwareUiDelegateE@Base 4:4.10.80
 _ZN7Akonadi11ITIPHandler7Private11qt_metacallEN11QMetaObject4CallEiPPv@Base 4:4.10.80
 _ZN7Akonadi11ITIPHandler7Private11qt_metacastEPKc@Base 4:4.10.80
 _ZN7Akonadi11ITIPHandler7Private14onLoadFinishedEbRK7QString@Base 4:4.10.80
 _ZN7Akonadi11ITIPHandler7Private16onHelperFinishedENS_17ITIPHandlerHelper10SendResultERK7QString@Base 4:4.10.80
 _ZN7Akonadi11ITIPHandler7Private16staticMetaObjectE@Base 4:4.10.80
 _ZN7Akonadi11ITIPHandler7Private19onSchedulerFinishedENS_9Scheduler6ResultERK7QString@Base 4:4.10.80
 _ZN7Akonadi11ITIPHandler7Private21finishSendAsICalendarENS_9Scheduler6ResultERK7QString@Base 4:4.10.80
 _ZN7Akonadi11ITIPHandler7Private21finishSendiTIPMessageENS_9Scheduler6ResultERK7QString@Base 4:4.10.80
 _ZN7Akonadi11ITIPHandler7Private24finishProcessiTIPMessageENS_9Scheduler6ResultERK7QString@Base 4:4.10.80
 _ZN7Akonadi11ITIPHandler7Private24finishPublishInformationENS_9Scheduler6ResultERK7QString@Base 4:4.10.80
 _ZN7Akonadi11ITIPHandler7Private33onCounterProposalDelegateFinishedEbRK7QString@Base 4:4.11.3
 _ZN7Akonadi11ITIPHandler7Private8calendarEv@Base 4:4.10.95
 _ZN7Akonadi11ITIPHandler7Private8isLoadedEv@Base 4:4.10.95
 _ZN7Akonadi11ITIPHandler7PrivateC1EPS0_@Base 4:4.10.80
 _ZN7Akonadi11ITIPHandler7PrivateC2EPS0_@Base 4:4.10.80
 _ZN7Akonadi11ITIPHandler7PrivateD0Ev@Base 4:4.10.80
 _ZN7Akonadi11ITIPHandler7PrivateD1Ev@Base 4:4.10.80
 _ZN7Akonadi11ITIPHandler7PrivateD2Ev@Base 4:4.10.80
 _ZN7Akonadi11ITIPHandlerC1EP7QObject@Base 4:4.10.80
 _ZN7Akonadi11ITIPHandlerC2EP7QObject@Base 4:4.10.80
 _ZN7Akonadi11ITIPHandlerD0Ev@Base 4:4.10.80
 _ZN7Akonadi11ITIPHandlerD1Ev@Base 4:4.10.80
 _ZN7Akonadi11ITIPHandlerD2Ev@Base 4:4.10.80
 _ZN7Akonadi12CalendarBase10addJournalERK14QSharedPointerIN8KCalCore7JournalEE@Base 4:4.10.80
 _ZN7Akonadi12CalendarBase10deleteTodoERK14QSharedPointerIN8KCalCore4TodoEE@Base 4:4.10.80
 _ZN7Akonadi12CalendarBase11deleteEventERK14QSharedPointerIN8KCalCore5EventEE@Base 4:4.10.80
 _ZN7Akonadi12CalendarBase11qt_metacallEN11QMetaObject4CallEiPPv@Base 4:4.10.80
 _ZN7Akonadi12CalendarBase11qt_metacastEPKc@Base 4:4.10.80
 _ZN7Akonadi12CalendarBase12addIncidenceERK14QSharedPointerIN8KCalCore9IncidenceEE@Base 4:4.10.80
 _ZN7Akonadi12CalendarBase13deleteJournalERK14QSharedPointerIN8KCalCore7JournalEE@Base 4:4.10.80
 _ZN7Akonadi12CalendarBase14createFinishedEbRK7QString@Base 4:4.10.80
 _ZN7Akonadi12CalendarBase14deleteAllTodosEv@Base 4:4.10.80
 _ZN7Akonadi12CalendarBase14deleteFinishedEbRK7QString@Base 4:4.10.80
 _ZN7Akonadi12CalendarBase14endBatchAddingEv@Base 4:4.10.80
 _ZN7Akonadi12CalendarBase14modifyFinishedEbRK7QString@Base 4:4.10.80
 _ZN7Akonadi12CalendarBase14setWeakPointerERK12QWeakPointerIS0_E@Base 4:4.10.80
 _ZN7Akonadi12CalendarBase15deleteAllEventsEv@Base 4:4.10.80
 _ZN7Akonadi12CalendarBase15deleteIncidenceERK14QSharedPointerIN8KCalCore9IncidenceEE@Base 4:4.10.80
 _ZN7Akonadi12CalendarBase15modifyIncidenceERK14QSharedPointerIN8KCalCore9IncidenceEE@Base 4:4.10.80
 _ZN7Akonadi12CalendarBase16startBatchAddingEv@Base 4:4.10.80
 _ZN7Akonadi12CalendarBase16staticMetaObjectE@Base 4:4.10.80
 _ZN7Akonadi12CalendarBase17deleteAllJournalsEv@Base 4:4.10.80
 _ZN7Akonadi12CalendarBase7addTodoERK14QSharedPointerIN8KCalCore4TodoEE@Base 4:4.10.80
 _ZN7Akonadi12CalendarBase8addEventERK14QSharedPointerIN8KCalCore5EventEE@Base 4:4.10.80
 _ZN7Akonadi12CalendarBaseC1EP7QObject@Base 4:4.10.80
 _ZN7Akonadi12CalendarBaseC1EPNS_19CalendarBasePrivateEP7QObject@Base 4:4.10.80
 _ZN7Akonadi12CalendarBaseC2EP7QObject@Base 4:4.10.80
 _ZN7Akonadi12CalendarBaseC2EPNS_19CalendarBasePrivateEP7QObject@Base 4:4.10.80
 _ZN7Akonadi12CalendarBaseD0Ev@Base 4:4.10.80
 _ZN7Akonadi12CalendarBaseD1Ev@Base 4:4.10.80
 _ZN7Akonadi12CalendarBaseD2Ev@Base 4:4.10.80
 _ZN7Akonadi12ICalImporter11qt_metacallEN11QMetaObject4CallEiPPv@Base 4:4.11.80
 _ZN7Akonadi12ICalImporter11qt_metacastEPKc@Base 4:4.11.80
 _ZN7Akonadi12ICalImporter16staticMetaObjectE@Base 4:4.11.80
 _ZN7Akonadi12ICalImporter21importIntoNewFinishedEb@Base 4:4.11.80
 _ZN7Akonadi12ICalImporter21importIntoNewResourceERK7QString@Base 4:4.11.80
 _ZN7Akonadi12ICalImporter26importIntoExistingFinishedEbi@Base 4:4.11.80
 _ZN7Akonadi12ICalImporter26importIntoExistingResourceERK4QUrlNS_10CollectionE@Base 4:4.11.80
 _ZN7Akonadi12ICalImporter7Private11qt_metacallEN11QMetaObject4CallEiPPv@Base 4:4.11.80
 _ZN7Akonadi12ICalImporter7Private11qt_metacastEPKc@Base 4:4.11.80
 _ZN7Akonadi12ICalImporter7Private15resourceCreatedEP4KJob@Base 4:4.11.80
 _ZN7Akonadi12ICalImporter7Private15setErrorMessageERK7QString@Base 4:4.11.80
 _ZN7Akonadi12ICalImporter7Private16staticMetaObjectE@Base 4:4.11.80
 _ZN7Akonadi12ICalImporter7Private18onIncidenceCreatedEiRKNS_4ItemENS_16IncidenceChanger10ResultCodeERK7QString@Base 4:4.11.80
 _ZN7Akonadi12ICalImporter7Private22remoteDownloadFinishedEPN3KIO3JobERK10QByteArray@Base 4:4.11.80
 _ZN7Akonadi12ICalImporter7PrivateC1EPNS_16IncidenceChangerEPS0_@Base 4:4.11.80
 _ZN7Akonadi12ICalImporter7PrivateC2EPNS_16IncidenceChangerEPS0_@Base 4:4.11.80
 _ZN7Akonadi12ICalImporter7PrivateD0Ev@Base 4:4.11.80
 _ZN7Akonadi12ICalImporter7PrivateD1Ev@Base 4:4.11.80
 _ZN7Akonadi12ICalImporter7PrivateD2Ev@Base 4:4.11.80
 _ZN7Akonadi12ICalImporterC1EPNS_16IncidenceChangerEP7QObject@Base 4:4.11.80
 _ZN7Akonadi12ICalImporterC2EPNS_16IncidenceChangerEP7QObject@Base 4:4.11.80
 _ZN7Akonadi12ICalImporterD0Ev@Base 4:4.11.80
 _ZN7Akonadi12ICalImporterD1Ev@Base 4:4.11.80
 _ZN7Akonadi12ICalImporterD2Ev@Base 4:4.11.80
 _ZN7Akonadi13PublishDialog11addAttendeeERK14QSharedPointerIN8KCalCore8AttendeeEE@Base 4:4.10.80
 _ZN7Akonadi13PublishDialog11qt_metacallEN11QMetaObject4CallEiPPv@Base 4:4.10.80
 _ZN7Akonadi13PublishDialog11qt_metacastEPKc@Base 4:4.10.80
 _ZN7Akonadi13PublishDialog16staticMetaObjectE@Base 4:4.10.80
 _ZN7Akonadi13PublishDialog7Private10removeItemEv@Base 4:4.10.80
 _ZN7Akonadi13PublishDialog7Private10updateItemEv@Base 4:4.10.80
 _ZN7Akonadi13PublishDialog7Private11qt_metacallEN11QMetaObject4CallEiPPv@Base 4:4.10.80
 _ZN7Akonadi13PublishDialog7Private11qt_metacastEPKc@Base 4:4.10.80
 _ZN7Akonadi13PublishDialog7Private11updateInputEv@Base 4:4.10.80
 _ZN7Akonadi13PublishDialog7Private15openAddressbookEv@Base 4:4.10.80
 _ZN7Akonadi13PublishDialog7Private16staticMetaObjectE@Base 4:4.10.80
 _ZN7Akonadi13PublishDialog7Private7addItemEv@Base 4:4.10.80
 _ZN7Akonadi13PublishDialog7PrivateC1EPS0_@Base 4:4.10.80
 _ZN7Akonadi13PublishDialog7PrivateC2EPS0_@Base 4:4.10.80
 _ZN7Akonadi13PublishDialog7PrivateD0Ev@Base 4:4.10.80
 _ZN7Akonadi13PublishDialog7PrivateD1Ev@Base 4:4.10.80
 _ZN7Akonadi13PublishDialog7PrivateD2Ev@Base 4:4.10.80
 _ZN7Akonadi13PublishDialogC1EP7QWidget@Base 4:4.10.80
 _ZN7Akonadi13PublishDialogC2EP7QWidget@Base 4:4.10.80
 _ZN7Akonadi13PublishDialogD0Ev@Base 4:4.10.80
 _ZN7Akonadi13PublishDialogD1Ev@Base 4:4.10.80
 _ZN7Akonadi13PublishDialogD2Ev@Base 4:4.10.80
 _ZN7Akonadi15FreeBusyManager10timerEventEP11QTimerEvent@Base 4:4.10.80
 _ZN7Akonadi15FreeBusyManager11qt_metacallEN11QMetaObject4CallEiPPv@Base 4:4.10.80
 _ZN7Akonadi15FreeBusyManager11qt_metacastEPKc@Base 4:4.10.80
 _ZN7Akonadi15FreeBusyManager11setCalendarERK14QSharedPointerINS_11ETMCalendarEE@Base 4:4.10.80
 _ZN7Akonadi15FreeBusyManager12loadFreeBusyERK7QString@Base 4:4.10.80
 _ZN7Akonadi15FreeBusyManager12mailFreeBusyEiP7QWidget@Base 4:4.10.80
 _ZN7Akonadi15FreeBusyManager12saveFreeBusyERK14QSharedPointerIN8KCalCore8FreeBusyEERKS1_INS2_6PersonEE@Base 4:4.10.80
 _ZN7Akonadi15FreeBusyManager15cancelRetrievalEv@Base 4:4.10.80
 _ZN7Akonadi15FreeBusyManager15publishFreeBusyEP7QWidget@Base 4:4.10.80
 _ZN7Akonadi15FreeBusyManager16retrieveFreeBusyERK7QStringbP7QWidget@Base 4:4.10.80
 _ZN7Akonadi15FreeBusyManager16staticMetaObjectE@Base 4:4.10.80
 _ZN7Akonadi15FreeBusyManager17freeBusyRetrievedERK14QSharedPointerIN8KCalCore8FreeBusyEERK7QString@Base 4:4.10.80
 _ZN7Akonadi15FreeBusyManager4selfEv@Base 4:4.10.80
 _ZN7Akonadi15FreeBusyManagerC1Ev@Base 4:4.10.80
 _ZN7Akonadi15FreeBusyManagerC2Ev@Base 4:4.10.80
 _ZN7Akonadi15FreeBusyManagerD0Ev@Base 4:4.10.80
 _ZN7Akonadi15FreeBusyManagerD1Ev@Base 4:4.10.80
 _ZN7Akonadi15FreeBusyManagerD2Ev@Base 4:4.10.80
 _ZN7Akonadi16CalendarSettings4selfEv@Base 4:4.10.80
 _ZN7Akonadi16CalendarSettingsC1Ev@Base 4:4.10.80
 _ZN7Akonadi16CalendarSettingsC2Ev@Base 4:4.10.80
 _ZN7Akonadi16CalendarSettingsD0Ev@Base 4:4.10.80
 _ZN7Akonadi16CalendarSettingsD1Ev@Base 4:4.10.80
 _ZN7Akonadi16CalendarSettingsD2Ev@Base 4:4.10.80
 _ZN7Akonadi16FetchJobCalendar11qt_metacallEN11QMetaObject4CallEiPPv@Base 4:4.10.80
 _ZN7Akonadi16FetchJobCalendar11qt_metacastEPKc@Base 4:4.10.80
 _ZN7Akonadi16FetchJobCalendar12loadFinishedEbRK7QString@Base 4:4.10.80
 _ZN7Akonadi16FetchJobCalendar16staticMetaObjectE@Base 4:4.10.80
 _ZN7Akonadi16FetchJobCalendarC1EP7QObject@Base 4:4.10.80
 _ZN7Akonadi16FetchJobCalendarC2EP7QObject@Base 4:4.10.80
 _ZN7Akonadi16FetchJobCalendarD0Ev@Base 4:4.10.80
 _ZN7Akonadi16FetchJobCalendarD1Ev@Base 4:4.10.80
 _ZN7Akonadi16FetchJobCalendarD2Ev@Base 4:4.10.80
 _ZN7Akonadi16IncidenceChanger11qt_metacallEN11QMetaObject4CallEiPPv@Base 4:4.10.80
 _ZN7Akonadi16IncidenceChanger11qt_metacastEPKc@Base 4:4.10.80
 _ZN7Akonadi16IncidenceChanger14createFinishedEiRKNS_4ItemENS0_10ResultCodeERK7QString@Base 4:4.10.80
 _ZN7Akonadi16IncidenceChanger14deleteFinishedEiRK7QVectorIxENS0_10ResultCodeERK7QString@Base 4:4.10.80
 _ZN7Akonadi16IncidenceChanger14modifyFinishedEiRKNS_4ItemENS0_10ResultCodeERK7QString@Base 4:4.10.80
 _ZN7Akonadi16IncidenceChanger15createIncidenceERK14QSharedPointerIN8KCalCore9IncidenceEERKNS_10CollectionEP7QWidget@Base 4:4.10.80
 _ZN7Akonadi16IncidenceChanger15deleteIncidenceERKNS_4ItemEP7QWidget@Base 4:4.10.80
 _ZN7Akonadi16IncidenceChanger15modifyIncidenceERKNS_4ItemERK14QSharedPointerIN8KCalCore9IncidenceEEP7QWidget@Base 4:4.10.80
 _ZN7Akonadi16IncidenceChanger16deleteIncidencesERK5QListINS_4ItemEEP7QWidget@Base 4:4.10.80
 _ZN7Akonadi16IncidenceChanger16staticMetaObjectE@Base 4:4.10.80
 _ZN7Akonadi16IncidenceChanger17setHistoryEnabledEb@Base 4:4.10.80
 _ZN7Akonadi16IncidenceChanger18endAtomicOperationEv@Base 4:4.10.80
 _ZN7Akonadi16IncidenceChanger19setInvitationPolicyENS0_16InvitationPolicyE@Base 4:4.11.80
 _ZN7Akonadi16IncidenceChanger20setDefaultCollectionERKNS_10CollectionE@Base 4:4.10.80
 _ZN7Akonadi16IncidenceChanger20setDestinationPolicyENS0_17DestinationPolicyE@Base 4:4.10.80
 _ZN7Akonadi16IncidenceChanger20startAtomicOperationERK7QString@Base 4:4.10.80
 _ZN7Akonadi16IncidenceChanger21setShowDialogsOnErrorEb@Base 4:4.10.80
 _ZN7Akonadi16IncidenceChanger23setAutoAdjustRecurrenceEb@Base 4:4.11.80
 _ZN7Akonadi16IncidenceChanger25setGroupwareCommunicationEb@Base 4:4.10.80
 _ZN7Akonadi16IncidenceChanger27setRespectsCollectionRightsEb@Base 4:4.10.80
 _ZN7Akonadi16IncidenceChanger7Private11qt_metacallEN11QMetaObject4CallEiPPv@Base 4:4.10.80
 _ZN7Akonadi16IncidenceChanger7Private11qt_metacastEPKc@Base 4:4.10.80
 _ZN7Akonadi16IncidenceChanger7Private15loadCollectionsEv@Base 4:4.11.80
 _ZN7Akonadi16IncidenceChanger7Private15showErrorDialogENS0_10ResultCodeEP7QWidget@Base 4:4.10.80
 _ZN7Akonadi16IncidenceChanger7Private16adjustRecurrenceERK14QSharedPointerIN8KCalCore9IncidenceEES7_@Base 4:4.11.80
 _ZN7Akonadi16IncidenceChanger7Private16staticMetaObjectE@Base 4:4.10.80
 _ZN7Akonadi16IncidenceChanger7Private17cancelTransactionEv@Base 4:4.10.80
 _ZN7Akonadi16IncidenceChanger7Private17queueModificationE14QSharedPointerINS_6ChangeEE@Base 4:4.10.80
 _ZN7Akonadi16IncidenceChanger7Private18cleanupTransactionEv@Base 4:4.10.80
 _ZN7Akonadi16IncidenceChanger7Private19onCollectionsLoadedEP4KJob@Base 4:4.11.80
 _ZN7Akonadi16IncidenceChanger7Private19performModificationE14QSharedPointerINS_6ChangeEE@Base 4:4.10.80
 _ZN7Akonadi16IncidenceChanger7Private20step2CreateIncidenceERK14QSharedPointerINS_6ChangeEERKNS_10CollectionE@Base 4:4.11.80
 _ZN7Akonadi16IncidenceChanger7Private21handleCreateJobResultEP4KJob@Base 4:4.10.80
 _ZN7Akonadi16IncidenceChanger7Private21handleDeleteJobResultEP4KJob@Base 4:4.10.80
 _ZN7Akonadi16IncidenceChanger7Private21handleModifyJobResultEP4KJob@Base 4:4.10.80
 _ZN7Akonadi16IncidenceChanger7Private22collectionsForMimeTypeERK7QStringRK5QListINS_10CollectionEE@Base 4:4.11.80
 _ZN7Akonadi16IncidenceChanger7Private23myAttendeeStatusChangedERK14QSharedPointerIN8KCalCore9IncidenceEES7_RK11QStringList@Base 4:4.10.80
 _ZN7Akonadi16IncidenceChanger7Private23performNextModificationEx@Base 4:4.10.80
 _ZN7Akonadi16IncidenceChanger7Private26handleTransactionJobResultEP4KJob@Base 4:4.10.80
 _ZN7Akonadi16IncidenceChanger7Private28handleInvitationsAfterChangeERK14QSharedPointerINS_6ChangeEE@Base 4:4.10.80
 _ZN7Akonadi16IncidenceChanger7Private29handleInvitationsBeforeChangeERK14QSharedPointerINS_6ChangeEE@Base 4:4.10.80
 _ZN7Akonadi16IncidenceChanger7Private35step1DetermineDestinationCollectionERK14QSharedPointerINS_6ChangeEERKNS_10CollectionE@Base 4:4.11.80
 _ZN7Akonadi16IncidenceChanger7PrivateC1EbPS0_@Base 4:4.10.80
 _ZN7Akonadi16IncidenceChanger7PrivateC2EbPS0_@Base 4:4.10.80
 _ZN7Akonadi16IncidenceChanger7PrivateD0Ev@Base 4:4.10.80
 _ZN7Akonadi16IncidenceChanger7PrivateD1Ev@Base 4:4.10.80
 _ZN7Akonadi16IncidenceChanger7PrivateD2Ev@Base 4:4.10.80
 _ZN7Akonadi16IncidenceChangerC1EP7QObject@Base 4:4.10.80
 _ZN7Akonadi16IncidenceChangerC1EbP7QObject@Base 4:4.10.80
 _ZN7Akonadi16IncidenceChangerC2EP7QObject@Base 4:4.10.80
 _ZN7Akonadi16IncidenceChangerC2EbP7QObject@Base 4:4.10.80
 _ZN7Akonadi16IncidenceChangerD0Ev@Base 4:4.10.80
 _ZN7Akonadi16IncidenceChangerD1Ev@Base 4:4.10.80
 _ZN7Akonadi16IncidenceChangerD2Ev@Base 4:4.10.80
 _ZN7Akonadi17CalendarClipboard11cutFinishedEbRK7QString@Base 4:4.10.80
 _ZN7Akonadi17CalendarClipboard11qt_metacallEN11QMetaObject4CallEiPPv@Base 4:4.10.80
 _ZN7Akonadi17CalendarClipboard11qt_metacastEPKc@Base 4:4.10.80
 _ZN7Akonadi17CalendarClipboard12cutIncidenceERK14QSharedPointerIN8KCalCore9IncidenceEENS0_4ModeE@Base 4:4.10.80
 _ZN7Akonadi17CalendarClipboard13copyIncidenceERK14QSharedPointerIN8KCalCore9IncidenceEENS0_4ModeE@Base 4:4.10.80
 _ZN7Akonadi17CalendarClipboard16staticMetaObjectE@Base 4:4.10.80
 _ZN7Akonadi17CalendarClipboard7Private11qt_metacallEN11QMetaObject4CallEiPPv@Base 4:4.10.80
 _ZN7Akonadi17CalendarClipboard7Private11qt_metacastEPKc@Base 4:4.10.80
 _ZN7Akonadi17CalendarClipboard7Private16staticMetaObjectE@Base 4:4.10.80
 _ZN7Akonadi17CalendarClipboard7Private18slotDeleteFinishedEiRK7QVectorIxENS_16IncidenceChanger10ResultCodeERK7QString@Base 4:4.10.80
 _ZN7Akonadi17CalendarClipboard7Private18slotModifyFinishedEiRKNS_4ItemENS_16IncidenceChanger10ResultCodeERK7QString@Base 4:4.10.80
 _ZN7Akonadi17CalendarClipboard7Private21getIncidenceHierarchyERK14QSharedPointerIN8KCalCore9IncidenceEER11QStringList@Base 4:4.10.80
 _ZN7Akonadi17CalendarClipboard7Private21makeChildsIndependentERK14QSharedPointerIN8KCalCore9IncidenceEE@Base 4:4.10.80
 _ZN7Akonadi17CalendarClipboard7Private3cutERK14QSharedPointerIN8KCalCore9IncidenceEE@Base 4:4.10.80
 _ZN7Akonadi17CalendarClipboard7Private3cutERK7QVectorI14QSharedPointerIN8KCalCore9IncidenceEEE@Base 4:4.10.80
 _ZN7Akonadi17CalendarClipboard7PrivateC1ERK14QSharedPointerINS_12CalendarBaseEEPNS_16IncidenceChangerEPS0_@Base 4:4.10.80
 _ZN7Akonadi17CalendarClipboard7PrivateC2ERK14QSharedPointerINS_12CalendarBaseEEPNS_16IncidenceChangerEPS0_@Base 4:4.10.80
 _ZN7Akonadi17CalendarClipboard7PrivateD0Ev@Base 4:4.10.80
 _ZN7Akonadi17CalendarClipboard7PrivateD1Ev@Base 4:4.10.80
 _ZN7Akonadi17CalendarClipboard7PrivateD2Ev@Base 4:4.10.80
 _ZN7Akonadi17CalendarClipboardC1ERK14QSharedPointerINS_12CalendarBaseEEPNS_16IncidenceChangerEP7QObject@Base 4:4.10.80
 _ZN7Akonadi17CalendarClipboardC2ERK14QSharedPointerINS_12CalendarBaseEEPNS_16IncidenceChangerEP7QObject@Base 4:4.10.80
 _ZN7Akonadi17CalendarClipboardD0Ev@Base 4:4.10.80
 _ZN7Akonadi17CalendarClipboardD1Ev@Base 4:4.10.80
 _ZN7Akonadi17CalendarClipboardD2Ev@Base 4:4.10.80
 _ZN7Akonadi19GroupwareUiDelegateD0Ev@Base 4:4.10.80
 _ZN7Akonadi19GroupwareUiDelegateD1Ev@Base 4:4.10.80
 _ZN7Akonadi19GroupwareUiDelegateD2Ev@Base 4:4.10.80
 _ZN7Akonadi20BlockAlarmsAttribute11deserializeERK10QByteArray@Base 4:4.10.80
 _ZN7Akonadi20BlockAlarmsAttribute14blockAlarmTypeEN8KCalCore5Alarm4TypeEb@Base 4:4.10.80
 _ZN7Akonadi20BlockAlarmsAttributeC1Ev@Base 4:4.10.80
 _ZN7Akonadi20BlockAlarmsAttributeC2Ev@Base 4:4.10.80
 _ZN7Akonadi20BlockAlarmsAttributeD0Ev@Base 4:4.10.80
 _ZN7Akonadi20BlockAlarmsAttributeD1Ev@Base 4:4.10.80
 _ZN7Akonadi20BlockAlarmsAttributeD2Ev@Base 4:4.10.80
 _ZN7Akonadi20FreeBusyProviderBase17freeBusyRetrievedERK7QStringS3_bS3_@Base 4:4.7.90
 _ZN7Akonadi20FreeBusyProviderBaseC1Ev@Base 4:4.7.90
 _ZN7Akonadi20FreeBusyProviderBaseC2Ev@Base 4:4.7.90
 _ZN7Akonadi20FreeBusyProviderBaseD0Ev@Base 4:4.7.90
 _ZN7Akonadi20FreeBusyProviderBaseD1Ev@Base 4:4.7.90
 _ZN7Akonadi20FreeBusyProviderBaseD2Ev@Base 4:4.7.90
 _ZN7Akonadi29StandardCalendarActionManager11qt_metacallEN11QMetaObject4CallEiPPv@Base 4:4.5.86
 _ZN7Akonadi29StandardCalendarActionManager11qt_metacastEPKc@Base 4:4.5.86
 _ZN7Akonadi29StandardCalendarActionManager12createActionENS0_4TypeE@Base 4:4.5.86
 _ZN7Akonadi29StandardCalendarActionManager12createActionENS_21StandardActionManager4TypeE@Base 4:4.5.86
 _ZN7Akonadi29StandardCalendarActionManager13setActionTextENS_21StandardActionManager4TypeERK16KLocalizedString@Base 4:4.5.86
 _ZN7Akonadi29StandardCalendarActionManager14setContextTextENS_21StandardActionManager4TypeENS1_11TextContextERK16KLocalizedString@Base 4:4.5.86
 _ZN7Akonadi29StandardCalendarActionManager14setContextTextENS_21StandardActionManager4TypeENS1_11TextContextERK7QString@Base 4:4.5.86
 _ZN7Akonadi29StandardCalendarActionManager15interceptActionENS0_4TypeEb@Base 4:4.5.86
 _ZN7Akonadi29StandardCalendarActionManager15interceptActionENS_21StandardActionManager4TypeEb@Base 4:4.5.86
 _ZN7Akonadi29StandardCalendarActionManager16createAllActionsEv@Base 4:4.5.86
 _ZN7Akonadi29StandardCalendarActionManager16staticMetaObjectE@Base 4:4.5.86
 _ZN7Akonadi29StandardCalendarActionManager18actionStateUpdatedEv@Base 4:4.5.86
 _ZN7Akonadi29StandardCalendarActionManager21setItemSelectionModelEP19QItemSelectionModel@Base 4:4.5.86
 _ZN7Akonadi29StandardCalendarActionManager27setCollectionSelectionModelEP19QItemSelectionModel@Base 4:4.5.86
 _ZN7Akonadi29StandardCalendarActionManager32setCollectionPropertiesPageNamesERK11QStringList@Base 4:4.5.86
 _ZN7Akonadi29StandardCalendarActionManagerC1EP17KActionCollectionP7QWidget@Base 4:4.5.86
 _ZN7Akonadi29StandardCalendarActionManagerC2EP17KActionCollectionP7QWidget@Base 4:4.5.86
 _ZN7Akonadi29StandardCalendarActionManagerD0Ev@Base 4:4.5.86
 _ZN7Akonadi29StandardCalendarActionManagerD1Ev@Base 4:4.5.86
 _ZN7Akonadi29StandardCalendarActionManagerD2Ev@Base 4:4.5.86
 (optional=templinst)_ZN7Akonadi4Item14setPayloadImplI14QSharedPointerIN8KCalCore9IncidenceEEEEN5boost12disable_if_cIXsrNS_8Internal12PayloadTraitIT_EE13isPolymorphicEvE4typeERKSA_@Base 4:4.10.80
 _ZN7Akonadi7History11qt_metacallEN11QMetaObject4CallEiPPv@Base 4:4.10.80
 _ZN7Akonadi7History11qt_metacastEPKc@Base 4:4.10.80
 _ZN7Akonadi7History14recordCreationERKNS_4ItemERK7QStringj@Base 4:4.10.80
 _ZN7Akonadi7History14recordDeletionERKNS_4ItemERK7QStringj@Base 4:4.10.80
 _ZN7Akonadi7History15recordDeletionsERK5QListINS_4ItemEERK7QStringj@Base 4:4.10.80
 _ZN7Akonadi7History16staticMetaObjectE@Base 4:4.10.80
 _ZN7Akonadi7History18recordModificationERKNS_4ItemES3_RK7QStringj@Base 4:4.10.80
 _ZN7Akonadi7History4redoEP7QWidget@Base 4:4.10.80
 _ZN7Akonadi7History4undoEP7QWidget@Base 4:4.10.80
 _ZN7Akonadi7History5clearEv@Base 4:4.10.80
 _ZN7Akonadi7History6redoneENS0_10ResultCodeE@Base 4:4.10.80
 _ZN7Akonadi7History6undoneENS0_10ResultCodeE@Base 4:4.10.80
 _ZN7Akonadi7History7Private10setEnabledEb@Base 4:4.10.80
 _ZN7Akonadi7History7Private10stackEntryERK14QSharedPointerINS_5EntryEEj@Base 4:4.10.80
 _ZN7Akonadi7History7Private10undoOrRedoENS_13OperationTypeEP7QWidget@Base 4:4.10.80
 _ZN7Akonadi7History7Private11qt_metacallEN11QMetaObject4CallEiPPv@Base 4:4.10.80
 _ZN7Akonadi7History7Private11qt_metacastEPKc@Base 4:4.10.80
 _ZN7Akonadi7History7Private14handleFinishedENS_16IncidenceChanger10ResultCodeERK7QString@Base 4:4.10.80
 _ZN7Akonadi7History7Private16destinationStackEv@Base 4:4.10.80
 _ZN7Akonadi7History7Private16staticMetaObjectE@Base 4:4.10.80
 _ZN7Akonadi7History7Private4doItENS_13OperationTypeE@Base 4:4.10.80
 _ZN7Akonadi7History7Private5stackENS_13OperationTypeE@Base 4:4.10.80
 _ZN7Akonadi7History7Private5stackEv@Base 4:4.10.80
 _ZN7Akonadi7History7Private8emitDoneENS_13OperationTypeENS0_10ResultCodeE@Base 4:4.10.80
 _ZN7Akonadi7History7Private9updateIdsExx@Base 4:4.10.80
 _ZN7Akonadi7History7PrivateC1EPS0_@Base 4:4.10.80
 _ZN7Akonadi7History7PrivateC2EPS0_@Base 4:4.10.80
 _ZN7Akonadi7History7changedEv@Base 4:4.10.80
 _ZN7Akonadi7History7undoAllEP7QWidget@Base 4:4.10.80
 _ZN7Akonadi7HistoryC1EP7QObject@Base 4:4.10.80
 _ZN7Akonadi7HistoryC2EP7QObject@Base 4:4.10.80
 _ZN7Akonadi7HistoryD0Ev@Base 4:4.10.80
 _ZN7Akonadi7HistoryD1Ev@Base 4:4.10.80
 _ZN7Akonadi7HistoryD2Ev@Base 4:4.10.80
 _ZNK7Akonadi10TodoPurger10metaObjectEv@Base 4:4.11.80
 _ZNK7Akonadi10TodoPurger7Private10metaObjectEv@Base 4:4.11.80
 _ZNK7Akonadi10TodoPurger9lastErrorEv@Base 4:4.11.80
 _ZNK7Akonadi11ETMCalendar10collectionEx@Base 4:4.10.80
 _ZNK7Akonadi11ETMCalendar10metaObjectEv@Base 4:4.10.80
 _ZNK7Akonadi11ETMCalendar15entityTreeModelEv@Base 4:4.10.80
 _ZNK7Akonadi11ETMCalendar19checkableProxyModelEv@Base 4:4.10.80
 _ZNK7Akonadi11ETMCalendar26collectionFilteringEnabledEv@Base 4:4.10.80
 _ZNK7Akonadi11ETMCalendar5modelEv@Base 4:4.10.80
 _ZNK7Akonadi11ETMCalendar6alarmsERK9KDateTimeS3_b@Base 4:4.10.80
 _ZNK7Akonadi11ETMCalendar8hasRightERK7QStringNS_10Collection5RightE@Base 4:4.10.80
 _ZNK7Akonadi11ETMCalendar8hasRightERKNS_4ItemENS_10Collection5RightE@Base 4:4.10.80
 _ZNK7Akonadi11ETMCalendar8isLoadedEv@Base 4:4.13.90
 _ZNK7Akonadi11ITIPHandler10metaObjectEv@Base 4:4.10.80
 _ZNK7Akonadi11ITIPHandler7Private10metaObjectEv@Base 4:4.10.80
 _ZNK7Akonadi11ITIPHandler8calendarEv@Base 4:4.10.95
 _ZNK7Akonadi12CalendarBase10childItemsERK7QString@Base 4:4.10.80
 _ZNK7Akonadi12CalendarBase10childItemsERKx@Base 4:4.10.80
 _ZNK7Akonadi12CalendarBase10metaObjectEv@Base 4:4.10.80
 _ZNK7Akonadi12CalendarBase11weakPointerEv@Base 4:4.10.80
 _ZNK7Akonadi12CalendarBase15childIncidencesERK7QString@Base 4:4.10.80
 _ZNK7Akonadi12CalendarBase15childIncidencesERKx@Base 4:4.10.80
 _ZNK7Akonadi12CalendarBase16incidenceChangerEv@Base 4:4.10.80
 _ZNK7Akonadi12CalendarBase4itemERK14QSharedPointerIN8KCalCore9IncidenceEE@Base 4:4.10.80
 _ZNK7Akonadi12CalendarBase4itemERK7QString@Base 4:4.10.80
 _ZNK7Akonadi12CalendarBase4itemEx@Base 4:4.10.80
 _ZNK7Akonadi12CalendarBase5itemsEv@Base 4:4.10.80
 _ZNK7Akonadi12CalendarBase5itemsEx@Base 4:4.11.80
 _ZNK7Akonadi12CalendarBase8itemListERK7QVectorI14QSharedPointerIN8KCalCore9IncidenceEEE@Base 4:4.10.80
 _ZNK7Akonadi12ICalImporter10metaObjectEv@Base 4:4.11.80
 _ZNK7Akonadi12ICalImporter12errorMessageEv@Base 4:4.11.80
 _ZNK7Akonadi12ICalImporter7Private10metaObjectEv@Base 4:4.11.80
 _ZNK7Akonadi13PublishDialog10metaObjectEv@Base 4:4.10.80
 _ZNK7Akonadi13PublishDialog7Private10metaObjectEv@Base 4:4.10.80
 _ZNK7Akonadi13PublishDialog9addressesEv@Base 4:4.10.80
 _ZNK7Akonadi15FreeBusyManager10metaObjectEv@Base 4:4.10.80
 _ZNK7Akonadi16FetchJobCalendar10metaObjectEv@Base 4:4.10.80
 _ZNK7Akonadi16FetchJobCalendar8isLoadedEv@Base 4:4.10.80
 _ZNK7Akonadi16IncidenceChanger10metaObjectEv@Base 4:4.10.80
 _ZNK7Akonadi16IncidenceChanger14historyEnabledEv@Base 4:4.10.80
 _ZNK7Akonadi16IncidenceChanger15deletedRecentlyEx@Base 4:4.10.80
 _ZNK7Akonadi16IncidenceChanger16invitationPolicyEv@Base 4:4.11.80
 _ZNK7Akonadi16IncidenceChanger17defaultCollectionEv@Base 4:4.10.80
 _ZNK7Akonadi16IncidenceChanger17destinationPolicyEv@Base 4:4.10.80
 _ZNK7Akonadi16IncidenceChanger18lastCollectionUsedEv@Base 4:4.10.80
 _ZNK7Akonadi16IncidenceChanger18showDialogsOnErrorEv@Base 4:4.10.80
 _ZNK7Akonadi16IncidenceChanger20autoAdjustRecurrenceEv@Base 4:4.11.80
 _ZNK7Akonadi16IncidenceChanger22groupwareCommunicationEv@Base 4:4.10.80
 _ZNK7Akonadi16IncidenceChanger24respectsCollectionRightsEv@Base 4:4.10.80
 _ZNK7Akonadi16IncidenceChanger7Private10metaObjectEv@Base 4:4.10.80
 _ZNK7Akonadi16IncidenceChanger7Private19deleteAlreadyCalledEx@Base 4:4.10.80
 _ZNK7Akonadi16IncidenceChanger7Private20allowAtomicOperationEiRK14QSharedPointerINS_6ChangeEE@Base 4:4.10.80
 _ZNK7Akonadi16IncidenceChanger7Private20isLoadingCollectionsEv@Base 4:4.11.80
 _ZNK7Akonadi16IncidenceChanger7Private22atomicOperationIsValidEj@Base 4:4.10.80
 _ZNK7Akonadi16IncidenceChanger7Private9hasRightsERKNS_10CollectionENS0_10ChangeTypeE@Base 4:4.10.80
 _ZNK7Akonadi16IncidenceChanger7Private9parentJobERK14QSharedPointerINS_6ChangeEE@Base 4:4.10.80
 _ZNK7Akonadi16IncidenceChanger7historyEv@Base 4:4.10.80
 _ZNK7Akonadi17CalendarClipboard10metaObjectEv@Base 4:4.10.80
 _ZNK7Akonadi17CalendarClipboard14pasteAvailableEv@Base 4:4.10.80
 _ZNK7Akonadi17CalendarClipboard7Private10metaObjectEv@Base 4:4.10.80
 _ZNK7Akonadi20BlockAlarmsAttribute10serializedEv@Base 4:4.10.80
 _ZNK7Akonadi20BlockAlarmsAttribute18isAlarmTypeBlockedEN8KCalCore5Alarm4TypeE@Base 4:4.10.80
 _ZNK7Akonadi20BlockAlarmsAttribute4typeEv@Base 4:4.10.80
 _ZNK7Akonadi20BlockAlarmsAttribute5cloneEv@Base 4:4.10.80
 _ZNK7Akonadi20FreeBusyProviderBase15handlesFreeBusyERK7QStringb@Base 4:4.7.90
 _ZNK7Akonadi29StandardCalendarActionManager10metaObjectEv@Base 4:4.5.86
 _ZNK7Akonadi29StandardCalendarActionManager13selectedItemsEv@Base 4:4.5.86
 _ZNK7Akonadi29StandardCalendarActionManager19selectedCollectionsEv@Base 4:4.5.86
 _ZNK7Akonadi29StandardCalendarActionManager6actionENS0_4TypeE@Base 4:4.5.86
 _ZNK7Akonadi29StandardCalendarActionManager6actionENS_21StandardActionManager4TypeE@Base 4:4.5.86
 (optional=templinst|arch=alpha armhf mips mipsel powerpc powerpcspe)_ZNK7Akonadi4Item10hasPayloadI14QSharedPointerIN8KCalCore4TodoEEEEbv@Base 4:4.11.5
 (optional=templinst)_ZNK7Akonadi4Item10hasPayloadI14QSharedPointerIN8KCalCore9IncidenceEEEEbv@Base 4:4.10.80
 (optional=templinst)_ZNK7Akonadi4Item10tryToCloneI14QSharedPointerIN8KCalCore9IncidenceEEEEN5boost9enable_ifINS_8Internal17is_shared_pointerIT_EEbE4typeEPSA_PKi@Base 4:4.5.86
 (optional=templinst|arch=ia64)_ZNK7Akonadi4Item11payloadImplI14QSharedPointerIN8KCalCore4TodoEEEEN5boost11enable_if_cIXsrNS_8Internal12PayloadTraitIT_EE13isPolymorphicESA_E4typeEPKi@Base 4:4.11.5
 (optional=templinst)_ZNK7Akonadi4Item11payloadImplI14QSharedPointerIN8KCalCore9IncidenceEEEEN5boost12disable_if_cIXsrNS_8Internal12PayloadTraitIT_EE13isPolymorphicESA_E4typeEv@Base 4:4.5.86
 (optional=templinst)_ZNK7Akonadi4Item14hasPayloadImplI14QSharedPointerIN8KCalCore4TodoEEEEN5boost11enable_if_cIXsrNS_8Internal12PayloadTraitIT_EE13isPolymorphicEbE4typeEPKi@Base 4:4.6.2
 (optional=templinst)_ZNK7Akonadi4Item14hasPayloadImplI14QSharedPointerIN8KCalCore9IncidenceEEEEN5boost12disable_if_cIXsrNS_8Internal12PayloadTraitIT_EE13isPolymorphicEbE4typeEv@Base 4:4.7.4
 (optional=templinst)_ZNK7Akonadi4Item7payloadI14QSharedPointerIN8KCalCore9IncidenceEEEET_v@Base 4:4.10.80
 _ZNK7Akonadi7History10metaObjectEv@Base 4:4.10.80
 _ZNK7Akonadi7History13redoAvailableEv@Base 4:4.10.80
 _ZNK7Akonadi7History13undoAvailableEv@Base 4:4.10.80
 _ZNK7Akonadi7History15lastErrorStringEv@Base 4:4.10.80
 _ZNK7Akonadi7History19nextRedoDescriptionEv@Base 4:4.10.80
 _ZNK7Akonadi7History19nextUndoDescriptionEv@Base 4:4.10.80
 _ZNK7Akonadi7History7Private10metaObjectEv@Base 4:4.10.80
 _ZNK7Akonadi7History7Private9redoCountEv@Base 4:4.11.80
 _ZNK7Akonadi7History7Private9undoCountEv@Base 4:4.11.80
 _ZTIN7Akonadi10TodoPurger7PrivateE@Base 4:4.11.80
 _ZTIN7Akonadi10TodoPurgerE@Base 4:4.11.80
 _ZTIN7Akonadi11ETMCalendarE@Base 4:4.10.80
 _ZTIN7Akonadi11ITIPHandler7PrivateE@Base 4:4.10.80
 _ZTIN7Akonadi11ITIPHandlerE@Base 4:4.10.80
 _ZTIN7Akonadi12CalendarBaseE@Base 4:4.10.80
 _ZTIN7Akonadi12ICalImporter7PrivateE@Base 4:4.11.80
 _ZTIN7Akonadi12ICalImporterE@Base 4:4.11.80
 _ZTIN7Akonadi13PublishDialog7PrivateE@Base 4:4.10.80
 _ZTIN7Akonadi13PublishDialogE@Base 4:4.10.80
 _ZTIN7Akonadi15FreeBusyManagerE@Base 4:4.10.80
 _ZTIN7Akonadi16CalendarSettingsE@Base 4:4.10.80
 _ZTIN7Akonadi16FetchJobCalendarE@Base 4:4.10.80
 _ZTIN7Akonadi16IncidenceChanger7PrivateE@Base 4:4.10.80
 _ZTIN7Akonadi16IncidenceChangerE@Base 4:4.10.80
 _ZTIN7Akonadi17CalendarClipboard7PrivateE@Base 4:4.10.80
 _ZTIN7Akonadi17CalendarClipboardE@Base 4:4.10.80
 _ZTIN7Akonadi19GroupwareUiDelegateE@Base 4:4.10.80
 _ZTIN7Akonadi20BlockAlarmsAttributeE@Base 4:4.10.80
 _ZTIN7Akonadi20FreeBusyProviderBaseE@Base 4:4.7.90
 _ZTIN7Akonadi29StandardCalendarActionManagerE@Base 4:4.5.86
 _ZTIN7Akonadi7History7PrivateE@Base 4:4.10.80
 _ZTIN7Akonadi7HistoryE@Base 4:4.10.80
 _ZTSN7Akonadi10TodoPurger7PrivateE@Base 4:4.11.80
 _ZTSN7Akonadi10TodoPurgerE@Base 4:4.11.80
 _ZTSN7Akonadi11ETMCalendarE@Base 4:4.10.80
 _ZTSN7Akonadi11ITIPHandler7PrivateE@Base 4:4.10.80
 _ZTSN7Akonadi11ITIPHandlerE@Base 4:4.10.80
 _ZTSN7Akonadi12CalendarBaseE@Base 4:4.10.80
 _ZTSN7Akonadi12ICalImporter7PrivateE@Base 4:4.11.80
 _ZTSN7Akonadi12ICalImporterE@Base 4:4.11.80
 _ZTSN7Akonadi13PublishDialog7PrivateE@Base 4:4.10.80
 _ZTSN7Akonadi13PublishDialogE@Base 4:4.10.80
 _ZTSN7Akonadi15FreeBusyManagerE@Base 4:4.10.80
 _ZTSN7Akonadi16CalendarSettingsE@Base 4:4.10.80
 _ZTSN7Akonadi16FetchJobCalendarE@Base 4:4.10.80
 _ZTSN7Akonadi16IncidenceChanger7PrivateE@Base 4:4.10.80
 _ZTSN7Akonadi16IncidenceChangerE@Base 4:4.10.80
 _ZTSN7Akonadi17CalendarClipboard7PrivateE@Base 4:4.10.80
 _ZTSN7Akonadi17CalendarClipboardE@Base 4:4.10.80
 _ZTSN7Akonadi19GroupwareUiDelegateE@Base 4:4.10.80
 _ZTSN7Akonadi20BlockAlarmsAttributeE@Base 4:4.10.80
 _ZTSN7Akonadi20FreeBusyProviderBaseE@Base 4:4.7.90
 _ZTSN7Akonadi29StandardCalendarActionManagerE@Base 4:4.5.86
 _ZTSN7Akonadi7History7PrivateE@Base 4:4.10.80
 _ZTSN7Akonadi7HistoryE@Base 4:4.10.80
 _ZTVN7Akonadi10TodoPurger7PrivateE@Base 4:4.11.80
 _ZTVN7Akonadi10TodoPurgerE@Base 4:4.11.80
 _ZTVN7Akonadi11ETMCalendarE@Base 4:4.10.80
 _ZTVN7Akonadi11ITIPHandler7PrivateE@Base 4:4.10.80
 _ZTVN7Akonadi11ITIPHandlerE@Base 4:4.10.80
 _ZTVN7Akonadi12CalendarBaseE@Base 4:4.10.80
 _ZTVN7Akonadi12ICalImporter7PrivateE@Base 4:4.11.80
 _ZTVN7Akonadi12ICalImporterE@Base 4:4.11.80
 _ZTVN7Akonadi13PublishDialog7PrivateE@Base 4:4.10.80
 _ZTVN7Akonadi13PublishDialogE@Base 4:4.10.80
 _ZTVN7Akonadi15FreeBusyManagerE@Base 4:4.10.80
 _ZTVN7Akonadi16CalendarSettingsE@Base 4:4.10.80
 _ZTVN7Akonadi16FetchJobCalendarE@Base 4:4.10.80
 _ZTVN7Akonadi16IncidenceChanger7PrivateE@Base 4:4.10.80
 _ZTVN7Akonadi16IncidenceChangerE@Base 4:4.10.80
 _ZTVN7Akonadi17CalendarClipboard7PrivateE@Base 4:4.10.80
 _ZTVN7Akonadi17CalendarClipboardE@Base 4:4.10.80
 _ZTVN7Akonadi19GroupwareUiDelegateE@Base 4:4.10.80
 _ZTVN7Akonadi20BlockAlarmsAttributeE@Base 4:4.10.80
 _ZTVN7Akonadi20FreeBusyProviderBaseE@Base 4:4.7.90
 _ZTVN7Akonadi29StandardCalendarActionManagerE@Base 4:4.5.86
 _ZTVN7Akonadi7History7PrivateE@Base 4:4.10.80
 _ZTVN7Akonadi7HistoryE@Base 4:4.10.80
 (c++)"non-virtual thunk to Akonadi::CalendarBase::~CalendarBase()@Base" 4:4.10.80
 (c++)"non-virtual thunk to Akonadi::ETMCalendar::~ETMCalendar()@Base" 4:4.10.80
 (c++)"non-virtual thunk to Akonadi::FetchJobCalendar::~FetchJobCalendar()@Base" 4:4.10.80
 (c++)"non-virtual thunk to Akonadi::FreeBusyManager::loadFreeBusy(QString const&)@Base" 4:4.10.80
 (c++)"non-virtual thunk to Akonadi::FreeBusyManager::saveFreeBusy(QSharedPointer<KCalCore::FreeBusy> const&, QSharedPointer<KCalCore::Person> const&)@Base" 4:4.10.80
 (c++)"non-virtual thunk to Akonadi::FreeBusyManager::~FreeBusyManager()@Base" 4:4.10.80
 (c++)"non-virtual thunk to Akonadi::PublishDialog::~PublishDialog()@Base" 4:4.10.80
