# SymbolsHelper-Confirmed: 4:4.12.2 amd64
libakonadi-xml.so.4 libakonadi-xml4 #MINVER#
 _ZN7Akonadi11XmlDocument8loadFileERK7QString@Base 4:4.12.2
 _ZN7Akonadi11XmlDocumentC1ERK7QString@Base 4:4.12.2
 _ZN7Akonadi11XmlDocumentC1Ev@Base 4:4.12.2
 _ZN7Akonadi11XmlDocumentC2ERK7QString@Base 4:4.12.2
 _ZN7Akonadi11XmlDocumentC2Ev@Base 4:4.12.2
 _ZN7Akonadi11XmlDocumentD1Ev@Base 4:4.12.2
 _ZN7Akonadi11XmlDocumentD2Ev@Base 4:4.12.2
 _ZN7Akonadi11XmlWriteJob11qt_metacallEN11QMetaObject4CallEiPPv@Base 4:4.12.2
 _ZN7Akonadi11XmlWriteJob11qt_metacastEPKc@Base 4:4.12.2
 _ZN7Akonadi11XmlWriteJob16staticMetaObjectE@Base 4:4.12.2
 _ZN7Akonadi11XmlWriteJob4doneEv@Base 4:4.12.2
 _ZN7Akonadi11XmlWriteJob7doStartEv@Base 4:4.12.2
 _ZN7Akonadi11XmlWriteJobC1ERK5QListINS_10CollectionEERK7QStringP7QObject@Base 4:4.12.2
 _ZN7Akonadi11XmlWriteJobC1ERKNS_10CollectionERK7QStringP7QObject@Base 4:4.12.2
 _ZN7Akonadi11XmlWriteJobC2ERK5QListINS_10CollectionEERK7QStringP7QObject@Base 4:4.12.2
 _ZN7Akonadi11XmlWriteJobC2ERKNS_10CollectionERK7QStringP7QObject@Base 4:4.12.2
 _ZN7Akonadi11XmlWriteJobD0Ev@Base 4:4.12.2
 _ZN7Akonadi11XmlWriteJobD1Ev@Base 4:4.12.2
 _ZN7Akonadi11XmlWriteJobD2Ev@Base 4:4.12.2
 _ZN7Akonadi9XmlReader13elementToItemERK11QDomElementb@Base 4:4.12.2
 _ZN7Akonadi9XmlReader14readAttributesERK11QDomElementRNS_6EntityE@Base 4:4.12.2
 _ZN7Akonadi9XmlReader15readCollectionsERK11QDomElement@Base 4:4.12.2
 _ZN7Akonadi9XmlReader18elementToAttributeERK11QDomElement@Base 4:4.12.2
 _ZN7Akonadi9XmlReader19elementToCollectionERK11QDomElement@Base 4:4.12.2
 _ZN7Akonadi9XmlWriter13itemToElementERKNS_4ItemER12QDomDocument@Base 4:4.12.2
 _ZN7Akonadi9XmlWriter15writeAttributesERKNS_6EntityER11QDomElement@Base 4:4.12.2
 _ZN7Akonadi9XmlWriter15writeCollectionERKNS_10CollectionER11QDomElement@Base 4:4.12.2
 _ZN7Akonadi9XmlWriter18attributeToElementEPNS_9AttributeER12QDomDocument@Base 4:4.12.2
 _ZN7Akonadi9XmlWriter19collectionToElementERKNS_10CollectionER12QDomDocument@Base 4:4.12.2
 _ZN7Akonadi9XmlWriter9writeItemERKNS_4ItemER11QDomElement@Base 4:4.12.2
 _ZNK7Akonadi11XmlDocument11collectionsEv@Base 4:4.12.2
 _ZNK7Akonadi11XmlDocument11writeToFileERK7QString@Base 4:4.12.2
 _ZNK7Akonadi11XmlDocument14itemByRemoteIdERK7QStringb@Base 4:4.12.2
 _ZNK7Akonadi11XmlDocument16childCollectionsERK7QString@Base 4:4.12.2
 _ZNK7Akonadi11XmlDocument16childCollectionsERKNS_10CollectionE@Base 4:4.12.2
 _ZNK7Akonadi11XmlDocument17collectionElementERKNS_10CollectionE@Base 4:4.12.2
 _ZNK7Akonadi11XmlDocument20collectionByRemoteIdERK7QString@Base 4:4.12.2
 _ZNK7Akonadi11XmlDocument21itemElementByRemoteIdERK7QString@Base 4:4.12.2
 _ZNK7Akonadi11XmlDocument27collectionElementByRemoteIdERK7QString@Base 4:4.12.2
 _ZNK7Akonadi11XmlDocument5itemsERKNS_10CollectionEb@Base 4:4.12.2
 _ZNK7Akonadi11XmlDocument7isValidEv@Base 4:4.12.2
 _ZNK7Akonadi11XmlDocument8documentEv@Base 4:4.12.2
 _ZNK7Akonadi11XmlDocument9lastErrorEv@Base 4:4.12.2
 _ZNK7Akonadi11XmlWriteJob10metaObjectEv@Base 4:4.12.2
 _ZTIN7Akonadi11XmlWriteJobE@Base 4:4.12.2
 _ZTSN7Akonadi11XmlWriteJobE@Base 4:4.12.2
 _ZTVN7Akonadi11XmlWriteJobE@Base 4:4.12.2
