# SymbolsHelper-Confirmed: 4:4.4.0 amd64
libakonadi-kmime.so.4 libakonadi-kmime4 #MINVER#
* Build-Depends-Package: kdepimlibs5-dev
 _ZN7Akonadi11MessagePart4BodyE@Base 4:4.3.4
 _ZN7Akonadi11MessagePart6HeaderE@Base 4:4.3.4
 _ZN7Akonadi11MessagePart8EnvelopeE@Base 4:4.3.4
 _ZN7Akonadi12MessageModel11qt_metacallEN11QMetaObject4CallEiPPv@Base 4:4.3.4
 _ZN7Akonadi12MessageModel11qt_metacastEPKc@Base 4:4.3.4
 _ZN7Akonadi12MessageModel16staticMetaObjectE@Base 4:4.3.4
 _ZN7Akonadi12MessageModelC1EP7QObject@Base 4:4.3.4
 _ZN7Akonadi12MessageModelC2EP7QObject@Base 4:4.3.4
 _ZN7Akonadi12MessageModelD0Ev@Base 4:4.3.4
 _ZN7Akonadi12MessageModelD1Ev@Base 4:4.3.4
 _ZN7Akonadi12MessageModelD2Ev@Base 4:4.3.4
 _ZN7Akonadi16AddressAttribute11deserializeERK10QByteArray@Base 4:4.4.0
 _ZN7Akonadi16AddressAttribute5setCcERK11QStringList@Base 4:4.4.0
 _ZN7Akonadi16AddressAttribute5setToERK11QStringList@Base 4:4.4.0
 _ZN7Akonadi16AddressAttribute6setBccERK11QStringList@Base 4:4.4.0
 _ZN7Akonadi16AddressAttribute7setFromERK7QString@Base 4:4.4.0
 _ZN7Akonadi16AddressAttributeC1ERK7QStringRK11QStringListS6_S6_@Base 4:4.4.0
 _ZN7Akonadi16AddressAttributeC2ERK7QStringRK11QStringListS6_S6_@Base 4:4.4.0
 _ZN7Akonadi16AddressAttributeD0Ev@Base 4:4.4.0
 _ZN7Akonadi16AddressAttributeD1Ev@Base 4:4.4.0
 _ZN7Akonadi16AddressAttributeD2Ev@Base 4:4.4.0
 _ZN7Akonadi22MessageFolderAttribute11deserializeERK10QByteArray@Base 4:4.4.0
 _ZN7Akonadi22MessageFolderAttribute17setOutboundFolderEb@Base 4:4.4.0
 _ZN7Akonadi22MessageFolderAttributeC1ERKS0_@Base 4:4.4.0
 _ZN7Akonadi22MessageFolderAttributeC1Ev@Base 4:4.4.0
 _ZN7Akonadi22MessageFolderAttributeC2ERKS0_@Base 4:4.4.0
 _ZN7Akonadi22MessageFolderAttributeC2Ev@Base 4:4.4.0
 _ZN7Akonadi22MessageFolderAttributeD0Ev@Base 4:4.4.0
 _ZN7Akonadi22MessageFolderAttributeD1Ev@Base 4:4.4.0
 _ZN7Akonadi22MessageFolderAttributeD2Ev@Base 4:4.4.0
 _ZN7Akonadi22SpecialMailCollections11qt_metacallEN11QMetaObject4CallEiPPv@Base 4:4.4.0
 _ZN7Akonadi22SpecialMailCollections11qt_metacastEPKc@Base 4:4.4.0
 _ZN7Akonadi22SpecialMailCollections16staticMetaObjectE@Base 4:4.4.0
 _ZN7Akonadi22SpecialMailCollections18registerCollectionENS0_4TypeERKNS_10CollectionE@Base 4:4.4.0
 _ZN7Akonadi22SpecialMailCollections4selfEv@Base 4:4.4.0
 _ZN7Akonadi22SpecialMailCollectionsC1EPNS_29SpecialMailCollectionsPrivateE@Base 4:4.4.0
 _ZN7Akonadi22SpecialMailCollectionsC2EPNS_29SpecialMailCollectionsPrivateE@Base 4:4.4.0
 _ZN7Akonadi25MessageThreaderProxyModel11qt_metacallEN11QMetaObject4CallEiPPv@Base 4:4.3.4
 _ZN7Akonadi25MessageThreaderProxyModel11qt_metacastEPKc@Base 4:4.3.4
 _ZN7Akonadi25MessageThreaderProxyModel14setSourceModelEP18QAbstractItemModel@Base 4:4.3.4
 _ZN7Akonadi25MessageThreaderProxyModel16staticMetaObjectE@Base 4:4.3.4
 _ZN7Akonadi25MessageThreaderProxyModelC1EP7QObject@Base 4:4.3.4
 _ZN7Akonadi25MessageThreaderProxyModelC2EP7QObject@Base 4:4.3.4
 _ZN7Akonadi25MessageThreaderProxyModelD0Ev@Base 4:4.3.4
 _ZN7Akonadi25MessageThreaderProxyModelD1Ev@Base 4:4.3.4
 _ZN7Akonadi25MessageThreaderProxyModelD2Ev@Base 4:4.3.4
 _ZN7Akonadi25MessageThreadingAttribute11deserializeERK10QByteArray@Base 4:4.3.4
 _ZN7Akonadi25MessageThreadingAttribute17setPerfectParentsERK5QListIxE@Base 4:4.3.4
 _ZN7Akonadi25MessageThreadingAttribute17setSubjectParentsERK5QListIxE@Base 4:4.3.4
 _ZN7Akonadi25MessageThreadingAttribute19setUnperfectParentsERK5QListIxE@Base 4:4.3.4
 _ZN7Akonadi25MessageThreadingAttributeC1ERKS0_@Base 4:4.3.4
 _ZN7Akonadi25MessageThreadingAttributeC1Ev@Base 4:4.3.4
 _ZN7Akonadi25MessageThreadingAttributeC2ERKS0_@Base 4:4.3.4
 _ZN7Akonadi25MessageThreadingAttributeC2Ev@Base 4:4.3.4
 _ZN7Akonadi25MessageThreadingAttributeD0Ev@Base 4:4.3.4
 _ZN7Akonadi25MessageThreadingAttributeD1Ev@Base 4:4.3.4
 _ZN7Akonadi25MessageThreadingAttributeD2Ev@Base 4:4.3.4
 _ZN7Akonadi32SpecialMailCollectionsRequestJob11qt_metacallEN11QMetaObject4CallEiPPv@Base 4:4.4.0
 _ZN7Akonadi32SpecialMailCollectionsRequestJob11qt_metacastEPKc@Base 4:4.4.0
 _ZN7Akonadi32SpecialMailCollectionsRequestJob16staticMetaObjectE@Base 4:4.4.0
 _ZN7Akonadi32SpecialMailCollectionsRequestJob17requestCollectionENS_22SpecialMailCollections4TypeERKNS_13AgentInstanceE@Base 4:4.4.0
 _ZN7Akonadi32SpecialMailCollectionsRequestJob24requestDefaultCollectionENS_22SpecialMailCollections4TypeE@Base 4:4.4.0
 _ZN7Akonadi32SpecialMailCollectionsRequestJobC1EP7QObject@Base 4:4.4.0
 _ZN7Akonadi32SpecialMailCollectionsRequestJobC2EP7QObject@Base 4:4.4.0
 _ZN7Akonadi32SpecialMailCollectionsRequestJobD0Ev@Base 4:4.4.0
 _ZN7Akonadi32SpecialMailCollectionsRequestJobD1Ev@Base 4:4.4.0
 _ZN7Akonadi32SpecialMailCollectionsRequestJobD2Ev@Base 4:4.4.0
 _ZNK7Akonadi12MessageModel10headerDataEiN2Qt11OrientationEi@Base 4:4.3.4
 _ZNK7Akonadi12MessageModel10metaObjectEv@Base 4:4.3.4
 _ZNK7Akonadi12MessageModel11columnCountERK11QModelIndex@Base 4:4.3.4
 _ZNK7Akonadi12MessageModel4dataERK11QModelIndexi@Base 4:4.3.4
 _ZNK7Akonadi12MessageModel8rowCountERK11QModelIndex@Base 4:4.3.4
 _ZNK7Akonadi12MessageModel9mimeTypesEv@Base 4:4.3.4
 _ZNK7Akonadi16AddressAttribute10serializedEv@Base 4:4.4.0
 _ZNK7Akonadi16AddressAttribute2ccEv@Base 4:4.4.0
 _ZNK7Akonadi16AddressAttribute2toEv@Base 4:4.4.0
 _ZNK7Akonadi16AddressAttribute3bccEv@Base 4:4.4.0
 _ZNK7Akonadi16AddressAttribute4fromEv@Base 4:4.4.0
 _ZNK7Akonadi16AddressAttribute4typeEv@Base 4:4.4.0
 _ZNK7Akonadi16AddressAttribute5cloneEv@Base 4:4.4.0
 _ZNK7Akonadi22MessageFolderAttribute10serializedEv@Base 4:4.4.0
 _ZNK7Akonadi22MessageFolderAttribute16isOutboundFolderEv@Base 4:4.4.0
 _ZNK7Akonadi22MessageFolderAttribute4typeEv@Base 4:4.4.0
 _ZNK7Akonadi22MessageFolderAttribute5cloneEv@Base 4:4.4.0
 _ZNK7Akonadi22SpecialMailCollections10collectionENS0_4TypeERKNS_13AgentInstanceE@Base 4:4.4.0
 _ZNK7Akonadi22SpecialMailCollections10metaObjectEv@Base 4:4.4.0
 _ZNK7Akonadi22SpecialMailCollections13hasCollectionENS0_4TypeERKNS_13AgentInstanceE@Base 4:4.4.0
 _ZNK7Akonadi22SpecialMailCollections17defaultCollectionENS0_4TypeE@Base 4:4.4.0
 _ZNK7Akonadi22SpecialMailCollections20hasDefaultCollectionENS0_4TypeE@Base 4:4.4.0
 _ZNK7Akonadi25MessageThreaderProxyModel10metaObjectEv@Base 4:4.3.4
 _ZNK7Akonadi25MessageThreaderProxyModel11columnCountERK11QModelIndex@Base 4:4.3.4
 _ZNK7Akonadi25MessageThreaderProxyModel11createIndexEiij@Base 4:4.3.4
 _ZNK7Akonadi25MessageThreaderProxyModel11hasChildrenERK11QModelIndex@Base 4:4.3.4
 _ZNK7Akonadi25MessageThreaderProxyModel11mapToSourceERK11QModelIndex@Base 4:4.3.4
 _ZNK7Akonadi25MessageThreaderProxyModel13mapFromSourceERK11QModelIndex@Base 4:4.3.4
 _ZNK7Akonadi25MessageThreaderProxyModel5indexEiiRK11QModelIndex@Base 4:4.3.4
 _ZNK7Akonadi25MessageThreaderProxyModel6parentERK11QModelIndex@Base 4:4.3.4
 _ZNK7Akonadi25MessageThreaderProxyModel8mimeDataERK5QListI11QModelIndexE@Base 4:4.3.4
 _ZNK7Akonadi25MessageThreaderProxyModel8rowCountERK11QModelIndex@Base 4:4.3.4
 _ZNK7Akonadi25MessageThreaderProxyModel9mimeTypesEv@Base 4:4.3.4
 _ZNK7Akonadi25MessageThreadingAttribute10serializedEv@Base 4:4.3.4
 _ZNK7Akonadi25MessageThreadingAttribute14perfectParentsEv@Base 4:4.3.4
 _ZNK7Akonadi25MessageThreadingAttribute14subjectParentsEv@Base 4:4.3.4
 _ZNK7Akonadi25MessageThreadingAttribute16unperfectParentsEv@Base 4:4.3.4
 _ZNK7Akonadi25MessageThreadingAttribute4typeEv@Base 4:4.3.4
 _ZNK7Akonadi25MessageThreadingAttribute5cloneEv@Base 4:4.3.4
 _ZNK7Akonadi32SpecialMailCollectionsRequestJob10metaObjectEv@Base 4:4.4.0
 (optional=templinst)_ZNK7Akonadi4Item7payloadIN5boost10shared_ptrIN5KMime7MessageEEEEET_v@Base 4:4.3.4
 (optional=templinst|arch=!amd64 !hppa)_ZNK7Akonadi6Entity9attributeINS_25MessageThreadingAttributeEEEPT_v@Base 4:4.3.4
 _ZTIN7Akonadi12MessageModelE@Base 4:4.3.4
 _ZTIN7Akonadi16AddressAttributeE@Base 4:4.4.0
 _ZTIN7Akonadi22MessageFolderAttributeE@Base 4:4.4.0
 _ZTIN7Akonadi22SpecialMailCollectionsE@Base 4:4.4.0
 _ZTIN7Akonadi25MessageThreaderProxyModelE@Base 4:4.3.4
 _ZTIN7Akonadi25MessageThreadingAttributeE@Base 4:4.3.4
 _ZTIN7Akonadi32SpecialMailCollectionsRequestJobE@Base 4:4.4.0
 _ZTSN7Akonadi12MessageModelE@Base 4:4.3.4
 _ZTSN7Akonadi16AddressAttributeE@Base 4:4.4.0
 _ZTSN7Akonadi22MessageFolderAttributeE@Base 4:4.4.0
 _ZTSN7Akonadi22SpecialMailCollectionsE@Base 4:4.4.0
 _ZTSN7Akonadi25MessageThreaderProxyModelE@Base 4:4.3.4
 _ZTSN7Akonadi25MessageThreadingAttributeE@Base 4:4.3.4
 _ZTSN7Akonadi32SpecialMailCollectionsRequestJobE@Base 4:4.4.0
 _ZTVN7Akonadi12MessageModelE@Base 4:4.3.4
 _ZTVN7Akonadi16AddressAttributeE@Base 4:4.4.0
 _ZTVN7Akonadi22MessageFolderAttributeE@Base 4:4.4.0
 _ZTVN7Akonadi22SpecialMailCollectionsE@Base 4:4.4.0
 _ZTVN7Akonadi25MessageThreaderProxyModelE@Base 4:4.3.4
 _ZTVN7Akonadi25MessageThreadingAttributeE@Base 4:4.3.4
 _ZTVN7Akonadi32SpecialMailCollectionsRequestJobE@Base 4:4.4.0
